Sat Jan 04 17:37:25 2025
-------------------------
CAS V2.15.1-rc1 - (C) Copyright 2000-2012 CHIPMAST TECHNOLOGY CO. LTD.
Main file   : main.asm
Current file: main.asm

     1                        ;********************************************************************************
     2                        ; PROJECT	: Calendar(MC830B)							*
     3                        ; AUTHOR	: WBN										*
     4                        ; REVISION	: 13/9/2024  V1.0	First issue				*
     5                        ; High OSC CLK  : Internal RC 4.4MHz	Fcpu = Fosc/2				*
     6                        ; Function	: 								*
     7                        ;********************************************************************************
     8                        	.CHIP	W65C02S      ;cpu的选型
     9                        	;.INCLIST	ON       ;宏定义和文件
    10                        	.MACLIST	ON
    11                        ;***************************************
    12                        CODE_BEG	EQU		F000H ;C000H(4K*4次)        ;起始地址
    13                        ;***************************************
    14                        
    15                        PROG	SECTION	OFFSET	CODE_BEG                ;定义代码段的偏移量从CODE_BEG开始，用于组织程序代码。
    16                        
    17                        ;***************************************
    18                        ;*	header include                               ;头文件
    19                        ;***************************************
    20                        	.include	50P016.h
     1                        .page0
     2                        .org 	00H
     3                        PA		EQU	01H
     4                        P_PA		EQU	PA
     5                        PAWAKE	EQU	02H
     6                        P_PA_WAKE	EQU	PAWAKE
     7                        PADIR	EQU	04H
     8                        P_PA_DIR	EQU	PADIR
     9                        P_PA_IO		EQU	PADIR
    10                        PB		EQU	05H
    11                        P_PB		EQU	PB
    12                        PBTYPE	EQU	06H
    13                        P_PB_TYPE	EQU	PBTYPE
    14                        PC		EQU	07H
    15                        P_PC 		EQU PC
    16                        PCDIR	EQU	08H
    17                        P_PC_IO 	EQU	PCDIR
    18                        P_PC_DIR	EQU	PCDIR
    19                        PCSEG	EQU	09H	;
    20                        P_PCSEG		EQU	PCSEG
    21                        PD		EQU	0AH
    22                        PDDIR	EQU 0BH
    23                        PADF0	EQU	0CH	;
    24                        P_PADF0		EQU	PADF0
    25                        PADF1	EQU	0DH	;
    26                        IER		EQU	0EH
    27                        P_IER 	EQU IER
    28                        IFR		EQU	0FH
    29                        P_IFR 		EQU IFR
    30                        TMR0	EQU	10H	;
    31                        P_TMR0		EQU	TMR0
    32                        TMR1	EQU	12H	;
    33                        P_TMR1  	EQU	TMR1
    34                        TMR2	EQU	14H	;
    35                        TMRC	EQU	16H	;
    36                        P_TMRCTRL 	EQU TMRC
    37                        P_TMRC		EQU	TMRC
    38                        bTMR0ON    EQU	   0
    39                        bTMR1ON    EQU	   1
    40                        bLCDON	   EQU	   4
    41                        bAUDON	   EQU	   7
    42                        
    43                        TMCLK	EQU	17H	;
    44                        P_TMRCLK 	EQU TMCLK
    45                        P_TMCLK 	EQU TMCLK
    46                        DIVC	EQU	18H	;
    47                        P_DIVC		EQU	DIVC
    48                        LCDCTRL	EQU	19H	;
    49                        LCDCOM	EQU	1AH	;
    50                        P_LCD_COM	EQU	LCDCOM
    51                        WDTC	EQU	1CH	;
    52                        SYSCLK	EQU	1DH
    53                        P_SYSCLK	EQU	SYSCLK
    54                        sysclk		equ SYSCLK
    55                        HALT	EQU	1EH	;
    56                        P_HALT		EQU	HALT
    57                        AUD0	EQU	1FH	;
    58                        P_AUD		EQU	AUD0
    59                        
    60                        AUDCR	EQU	20H	;
    61                        P_AUD_CTL	EQU	AUDCR
    62                        FRAME	EQU	21H	;
    63                        ;BANK	EQU	23H	;
    64                        MF		EQU	2FH
    65                        
    66                        SPCR	EQU	32H
    67                        SPSR	EQU	33H
    68                        SPDR	EQU	34H
    69                        PAK		EQU	3AH
    70                        PBK		EQU	3BH
    71                        PCK		EQU	3CH
    72                        LVC		EQU	3DH
    73                        FUSE	EQU	3EH
    74                        
    75                        PDSEG	EQU	5CH
    76                        RFCC0	EQU	5DH
    77                        RFCC1	EQU	5EH
    78                        
    79                        .ends
    79                        
    21                        	.INCLUDE	RAM.INC
     1                        .Kdata
     2                        ;***************************************
     3                        ; RAM Address
     4                        ;***************************************
     5                        RamStarAddr			EQU		1800H   ;RAM的开始地址
     6                        LCD_RamAddr			EQU		RamStarAddr     ;LCD RAM的地址
     7                        Time_Addr			EQU		RamStarAddr+Time_Str_Addr-Page0RamStarAddr
     8                        
     9                        
    10                        ;***************************************
    11                        ;Time_Addr		EUQ		B0H
    12                        ;***************************************
    13                        .PAGE0     ;page 0的内存布局
    14                        ;***************************************
    15                        ;	ORG	0098H
    16                        ;---------------------------------------------------------------------
    17                        	ORG	0080H
    18                        Page0RamStarAddr	EQU		$
    19 00:0080: xx xx xx xx   LCDRAM					DS	6*6
    19 00:0080: xx xx xx xx   
    19 00:0080: xx xx xx xx   
    20                        
    21 00:00A4: xx            R_Int_Backup			DS	1
    22                        
    23 00:00A5: xx            Sys_Flag_A				DS	1		;0	系统状态
    24                        ; bit0 	=132hz标志
    25                        ; bit1	=1按键首次扫描标志
    26                        ; bit2 	=0按键循环扫描标志
    27                        ; bit3	=0设置模式
    28                        ; bit4 	=0快加设置
    29                        ; bit5 	=0无效键设置
    30                        ; bit6	=0
    31                        ; bit7	=0
    32 00:00A6: xx            Sys_Flag_B				DS	1	;时钟模式的系统状态
    33                        ; bit0 	=半秒标志
    34                        ; bit1	=一秒标志
    35                        ; bit2	=12小时/24小时制度
    36                        ; bit3	=1是润年标志
    37                        ; bit4 	=
    38                        ; bit5 	=
    39                        ; bit6	=
    40                        ; bit7	=
    41 00:00A7: xx            Sys_Flag_C				DS	1	;闹钟模式的系统状态
    42                        ; bit0 	=0闹铃界面/1 整点报时
    43                        ; bit1	=0关闭整点报时，开启整点报时
    44                        ; bit2 	=
    45                        ; bit3	=
    46                        ; bit4 	=闹钟闹铃
    47                        ; bit5 	=闹铃被按下
    48                        ; bit6	=闹铃响铃了
    49                        ; bit7	=1贪睡标志
    50 00:00A8: xx            Sys_Flag_D				DS	1	;计时器模式的系统状态
    51                        ; bit0 	=1正计时开启计时
    52                        ; bit1	=1是倒计时开启计时
    53                        ; bit2	=1第一次倒计时
    54                        ; bit3	=
    55                        ; bit4 	=定时器闹铃
    56                        ; bit5 	=0无中途测量，1中途测量
    57                        ; bit6	=
    58                        ; bit7	=
    59                        
    60                        
    61                        ; Sys_Flag_E					DS	1;
    62                        ; Sys_Flag_F					DS	1;
    63                        ; Sys_Flag_G					DS	1;
    64                        ; Sys_Flag_H					DS	1;
    65                        
    66                        
    67 00:00A9: xx            P_PA_IO_Backup      		DS	1	;B
    68 00:00AA: xx            P_PA_Backup         		DS	1	;C
    69 00:00AB: xx            P_PA_WAKE_Backup			DS	1	;D
    70 00:00AC: xx            P_PC_IO_Backup      		DS	1	;E
    71 00:00AD: xx            P_PC_Backup         		DS	1	;F
    72                        
    73                        
    74                        
    75 00:00AE: xx            R_Reset_Time				DS	1;全显时间,一般为2s
    76                        
    77 00:00AF: xx            R_Scankey_Time				DS	1;按键按下的时间
    78                        D_Rscankey_Half_Sec				EQU	16;按键时间
    79                        D_Rscankey_Sec					EQU	32
    80                        D_Rscankey_TWO_Sec				EQU	64
    81                        
    82                        
    83 00:00B0: xx            P_Scankey_value_T_1			DS	1
    84 00:00B1: xx            P_Scankey_value				DS	1;按键存储值
    85 00:00B2: xx            P_Scankey_value_Temporary	DS	1;按键临时储存
    86                        
    87                        ; D_PLUS_Press					EQU	00100000B	;
    88                        D_Light_Press					EQU	00001000B	;PA3
    89                        
    90                        D_ST_SP_Press					EQU	10000000B	;PA7
    91                        D_Mode_Press					EQU	00000100B	;PA2
    92                        
    93                        D_Reset_Press					EQU	00100000B	;PA5
    94                        D_Key_value						EQU	10101100B
    95                        D_Dis_All						EQU	10100100B
    96                        
    97                        ;---------------------------------------
    98                        Time_Str_Addr	EQU		$
    99 00:00B3: xx            R_Time_Sec						DS	1;时钟的秒数;
   100 00:00B4: xx            R_Time_Min						DS	1;时钟的分钟数;
   101 00:00B5: xx            R_Time_Hr 						DS	1;时钟的小时数;
   102 00:00B6: xx            R_Time_Day 						DS	1;日
   103 00:00B7: xx            R_Time_Month 					DS	1;月
   104 00:00B8: xx            R_Time_Year						DS	1;年
   105 00:00B9: xx            R_Time_Week						DS	1;0是星期天，1是星期一---
   106 00:00BA: xx            R_Time_Min_Another				DS	1;第二时间的分钟
   107 00:00BB: xx            R_Time_Hr_Another				DS	1;第二时间的小时
   108                        
   109 00:00BC: xx            R_Timer_Ms						DS	1;定时器10ms次数
   110 00:00BD: xx            R_Timer_Sec						DS	1;定时器显示时间/正计时时间秒数
   111 00:00BE: xx            R_Timer_Min						DS	1;定时器显示时间/正计时时间分钟
   112 00:00BF: xx            R_Timer_Hr						DS	1;定时器显示时间/正计时时间小时
   113                        
   114                        
   115                        
   116 00:00C0: xx            R_Timer_Sec_Countdown			DS	1;/倒计时剩余时间秒数;
   117 00:00C1: xx            R_Timer_Min_Countdown			DS	1;/倒计时剩余时间分钟;
   118 00:00C2: xx            R_Timer_Hr_Countdown			DS	1;/倒计时剩余时间小时;
   119 00:00C3: xx            R_Timer_Sec_Backup				DS	1;定时器倒计时储存时间时间;9
   120 00:00C4: xx            R_Timer_Min_Backup				DS	1;定时器倒计时储存时间时间;10
   121 00:00C5: xx            R_Timer_Hr_Backup				DS	1;定时器倒计时储存时间时间;11
   122                        
   123                        D_Beep_Open_Last_Time_Timer		EQU	15
   124                        
   125                        
   126                        D_Beep_Open_Last_Time_Alarm		EQU	15
   127                        
   128 00:00C6: xx            R_Alarm_Clock_Min				DS	1;闹钟的分钟;	10
   129 00:00C7: xx            R_Alarm_Clock_Hr 				DS	1;闹钟的小时;	11
   130 00:00C8: xx            R_Alarm_Clock_Day 				DS	1;闹钟的天;	11
   131 00:00C9: xx            R_Alarm_Clock_Month				DS	1;闹铃的月份
   132 00:00CA: xx            R_Alarm_Mode					DS	1;闹钟的模式，0是闹钟关闭，1是闹钟开启，2是循环闹铃
   133 00:00CB: xx            R_Alarm_Clock_Mode				DS	1;0每日闹钟，1定日闹铃，2定月闹铃，3月次闹铃
   134                        
   135 00:00CC: xx            R_Snz_Time						DS	1;贪睡闹钟的分钟;
   136                        D_Snz_Time						EQU	5
   137 00:00CD: xx            R_Snz_Frequency					DS	1;贪睡闹钟的小时;
   138                        D_Snz_Frequency					EQU	7
   139                        
   140                        
   141                        
   142                        
   143 00:00CE: xx            R_Mode							DS	1;0是时钟模式，1是闹钟，2是正计时，3是第二时钟，4是倒计时
   144 00:00CF: xx            R_Mode_Set						DS	1;设置模式
   145                        
   146 00:00D0: xx            R_Time_Hr_am_pm					DS	1;判断AM和PM内存临时储存
   147                        
   148                        
   149                        
   150 00:00D1: xx            R_Set_Mode_Exit_Time			DS	1;自动设置退出时间
   151                        D_Set_Mode_Exit_Time			EQU	15
   152                        
   153 00:00D2: xx            R_Fast_Plus_Time				DS	1;长按LCD快加
   154                        
   155                        
   156 00:00D3: xx            R_Close_All_Dis					DS	1;控制关闭全显
   157                        D_Close_All_Dis					EQU	2
   158                        
   159                        
   160 00:00D4: xx            R_Close_Light_Time				DS	1;关闭light的时间
   161                        D_Close_Light_Time				EQU	2
   162                        
   163                        
   164 00:00D5: xx            R_Alarm_Clock_Open_Beep_Time	DS	1;32Hz转化为16hz
   165 00:00D6: xx            R_Close_Beep_Time				DS	1;闹铃关闭时间，闹铃响多久
   166 00:00D7: xx            R_Voice_Unit					DS	1;闹铃响的次数，一秒响几次
   167                        ;---------------------------------------
   168 00:00D8: xx xx xx xx   P_Temp			ds	8
   168 00:00D8: xx xx xx xx   
   169                        ;显示从写P_Temp+4
   170                        ;---------------------------------------
   171                        ;---------------------------------------
   172                        ;***************************************
   173                        .ENDS
   174                        ;***************************************
   175                        .Udata
   176                        ;---------------------------------------
   177                        	ORG    1880H
   178                        ;---------------------------------------
   179                        ;---------------------------------------
   180                        .ENDS
   181                        
   181                        
    22                        	.include	50P016.mac
     1                        ;------------------------------------
     2                        PB2_PB2_COMS MACRO
     3                                RMB0    PADF0
     4                                SMB2    PBTYPE ;COMS
     5                                ENDM
     6                        PB2_PB2_NOMS MACRO
     7                                RMB0    PADF0
     8                                RMB2    PBTYPE ;NOMS
     9                                ENDM
    10                        PB2_PWM MACRO
    11                                SMB0    PADF0
    12                                SMB2    PBTYPE ;COMS
    13                                ENDM
    14                        PB3_PB3_COMS MACRO
    15                                RMB1    PADF0
    16                                SMB3    PBTYPE ;NMOS
    17                                ENDM
    18                        PB3_PB3_NOMS MACRO
    19                                RMB1    PADF0
    20                                RMB3    PBTYPE ;CMOS
    21                                ENDM
    22                        PB3_PWM MACRO
    23                                SMB1    PADF0
    24                                SMB3    PBTYPE ;CMOS
    25                                ENDM
    26                        
    27                        PA4_PA4 MACRO
    28                                RMB3    PADF0
    29                                RMB4    PADF0
    30                                ENDM
    31                        PA4_IR_FSUB     MACRO
    32                                SMB3    PADF0
    33                                RMB4    PADF0
    34                                ENDM
    35                        PA4_IR_TMR0_D2  MACRO
    36                                RMB3    PADF0
    37                                SMB4    PADF0
    38                                ENDM
    39                        PA4_IR_TMR0_D3  MACRO
    40                                SMB3    PADF0
    41                                SMB4    PADF0
    42                                ENDM
    43                        
    44                        PA7_PA7 MACRO
    45                                RMB2    PADF0
    46                                ENDM
    47                        
    48                        PA7_EXT MACRO
    49                                SMB2    PADF0 ;falling edge trigger
    50                                ENDM
    51                        
    52                        PC45_PC45       MACRO
    53                                RMB4    PCSEG
    54                                ENDM
    55                        
    56                        PC67_PC67       MACRO
    57                                RMB5    PCSEG
    58                                RMB4    DIVC
    59                                ENDM
    60                        
    61                        PC67_EL01       MACRO
    62                                RMB5    PCSEG
    63                                SMB4    DIVC
    64                                ENDM
    65                        
    66                        PC03_SEG       MACRO
    67                                SMB0    PCSEG
    68                                SMB1    PCSEG
    69                                SMB2    PCSEG
    70                                SMB3    PCSEG
    71                                ENDM
    72                        
    73                        PC45_SEG       MACRO
    74                                SMB4    PCSEG
    75                                ENDM
    76                        PC67_SEG	MACRO
    77                                SMB5    PCSEG
    78                                ENDM
    79                        
    80                        PD03_SEG	MACRO
    81                        		SMB6	PCSEG
    82                                ENDM
    83                        PD03_RFC	MACRO
    84                        		RMB6	PCSEG
    85                        ;		RMB0	PDSEG
    86                        ;		RMB1	PDSEG
    87                        ;		RMB2	PDSEG
    88                        ;		RMB3	PDSEG
    89                        		SMB0	RFCC0
    90                        		SMB1	RFCC0
    91                        		SMB2	RFCC0
    92                        		SMB3	RFCC0
    93                                ENDM
    94                        PD03_PD03	MACRO
    95                        		RMB6	PCSEG
    96                        ;		RMB0	PDSEG
    97                        ;		RMB1	PDSEG
    98                        ;		RMB2	PDSEG
    99                        ;		RMB3	PDSEG
   100                        		RMB0	RFCC0
   101                        		RMB1	RFCC0
   102                        		RMB2	RFCC0
   103                        		RMB3	RFCC0
   104                                ENDM
   105                        PD0_SEG	MACRO
   106                        ;		RMB6	PCSEG
   107                        		SMB0	PDSEG
   108                                ENDM
   109                        PD1_SEG	MACRO
   110                        ;		RMB6	PCSEG
   111                        		SMB1	PDSEG
   112                                ENDM
   113                        PD2_SEG	MACRO
   114                        ;		RMB6	PCSEG
   115                        		SMB2	PDSEG
   116                                ENDM
   117                        PD3_SEG	MACRO
   118                        		RMB6	PCSEG
   119                        		SMB3	PDSEG
   120                                ENDM
   121                        
   122                        PD47_SEG	MACRO
   123                        		SMB7	PCSEG
   124                                ENDM
   125                        PD47_RFC	MACRO
   126                        		RMB7	PCSEG
   127                        ;		RMB4	PDSEG
   128                        ;		RMB5	PDSEG
   129                        ;		RMB6	PDSEG
   130                        ;		RMB7	PDSEG
   131                        		SMB4	RFCC0
   132                        		SMB5	RFCC0
   133                        		SMB6	RFCC0
   134                        		SMB7	RFCC0
   135                                ENDM
   136                        PD47_PD47	MACRO
   137                        		RMB7	PCSEG
   138                        ;		RMB4	PDSEG
   139                        ;		RMB5	PDSEG
   140                        ;		RMB6	PDSEG
   141                        ;		RMB7	PDSEG
   142                        		RMB4	RFCC0
   143                        		RMB5	RFCC0
   144                        		RMB6	RFCC0
   145                        		RMB7	RFCC0
   146                                ENDM
   147                        PD4_SEG	MACRO
   148                        ;		RMB7	PCSEG
   149                        		SMB4	PDSEG
   150                                ENDM
   151                        PD5_SEG	MACRO
   152                        ;		RMB7	PCSEG
   153                        		SMB5	PDSEG
   154                                ENDM
   155                        PD6_SEG	MACRO
   156                        ;		RMB7	PCSEG
   157                        		SMB6	PDSEG
   158                                ENDM
   159                        PD7_SEG	MACRO
   160                        		RMB7	PCSEG
   161                        		SMB7	PDSEG
   162                                ENDM
   163                        
   164                        PC_PD_SEG	MACRO
   165                        		lda		#$FF
   166                        		STA		PCSEG	;S1~S7,S8~S15
   167                                ENDM
   168                        
   169                        LCD_2COM	MACRO
   170                        		SMB0	LCDCOM
   171                        		RMB1	LCDCOM
   172                        		RMB2	LCDCOM
   173                                ENDM
   174                        LCD_3COM	MACRO
   175                        		RMB0	LCDCOM
   176                        		SMB1	LCDCOM
   177                        		RMB2	LCDCOM
   178                                ENDM
   179                        LCD_4COM	MACRO
   180                        		SMB0	LCDCOM
   181                        		SMB1	LCDCOM
   182                        		RMB2	LCDCOM
   183                                ENDM
   184                        LCD_5COM	MACRO
   185                        		RMB0	LCDCOM
   186                        		RMB1	LCDCOM
   187                        		SMB2	LCDCOM
   188                                ENDM
   189                        LCD_6COM	MACRO
   190                        		SMB0	LCDCOM
   191                        		RMB1	LCDCOM
   192                        		SMB2	LCDCOM
   193                                ENDM
   194                        LCD_7COM	MACRO
   195                        		RMB0	LCDCOM
   196                        		SMB1	LCDCOM
   197                        		SMB2	LCDCOM
   198                                ENDM
   199                        LCD_8COM	MACRO
   200                        		SMB0	LCDCOM
   201                        		SMB1	LCDCOM
   202                        		SMB2	LCDCOM
   203                                ENDM
   204                        
   205                        LCD_ENCH_EN		MACRO
   206                        		SMB6	LCDCOM
   207                                ENDM
   208                        LCD_ENCH_DIS	MACRO
   209                        		RMB6	LCDCOM
   210                                ENDM
   211                        
   212                        LCD_C_TYPE	MACRO
   213                        		SMB7	LCDCOM
   214                        		SMB0	PCSEG
   215                        		SMB1	PCSEG
   216                        		SMB2	PCSEG
   217                        		SMB3	PCSEG
   218                                ENDM
   219                        LCD_DRIVE_2	MACRO
   220                        		SMB0	LCDCTRL
   221                        		RMB1	LCDCTRL
   222                                ENDM
   223                        LCD_DRIVE_4	MACRO
   224                        		RMB0	LCDCTRL
   225                        		SMB1	LCDCTRL
   226                                ENDM
   227                        LCD_DRIVE_8	MACRO
   228                        		SMB0	LCDCTRL
   229                        		SMB1	LCDCTRL
   230                                ENDM
   231                        LCD_DRIVE_FULL	MACRO
   232                        		RMB0	LCDCTRL
   233                        		RMB1	LCDCTRL
   234                                ENDM
   235                        LCD_C_1_2_BAIS_3V	MACRO
   236                        		RMB2	LCDCTRL
   237                        		RMB3	LCDCTRL
   238                                ENDM
   239                        LCD_C_1_3_BAIS_3V	MACRO
   240                        		SMB2	LCDCTRL
   241                        		RMB3	LCDCTRL
   242                                ENDM
   243                        LCD_C_1_3_BAIS_4V	MACRO
   244                        		SMB2	LCDCTRL
   245                        		SMB3	LCDCTRL
   246                                ENDM
   247                        
   248                        LCD_R_TYPE	MACRO
   249                        		RMB7	LCDCOM
   250                                ENDM
   251                        LCD_R_1_2_BAIS	MACRO
   252                        		SMB2	LCDCTRL
   253                        		SMB3	LCDCTRL
   254                                ENDM
   255                        LCD_R_1_3_BAIS	MACRO
   256                        		RMB2	LCDCTRL
   257                        		RMB3	LCDCTRL
   258                                ENDM
   259                        LCD_R_1_4_BAIS	MACRO
   260                        		SMB2	LCDCTRL
   261                        		RMB3	LCDCTRL
   262                                ENDM
   263                        ;------------------------------------
   264                        Fext_WEAK       MACRO
   265                                RMB0    SYSCLK
   266                                ENDM
   267                        Fext_STRONG     MACRO
   268                                SMB0    SYSCLK
   269                                ENDM
   270                        
   271                        Fext_OFF        MACRO
   272                                RMB1    SYSCLK
   273                                ENDM
   274                        Fext_ON         MACRO
   275                                SMB1    SYSCLK
   276                                ENDM
   277                        
   278                        Fosc_OFF        MACRO
   279                                RMB2    SYSCLK
   280                                ENDM
   281                        Fosc_ON         MACRO
   282                                SMB2    SYSCLK
   283                                ENDM
   284                        
   285                        Fext_Xtal       MACRO
   286                                RMB3    SYSCLK
   287                                ENDM
   288                        Fext_RC         MACRO
   289                                SMB3    SYSCLK
   290                                ENDM
   291                        
   292                        Fsys_4MHZ MACRO
   293                                RMB4    SYSCLK
   294                                RMB5    SYSCLK
   295                                ENDM
   296                        Fsys_2MHZ MACRO
   297                                SMB4    SYSCLK
   298                                RMB5    SYSCLK
   299                                ENDM
   300                        Fsys_1MHZ MACRO
   301                                RMB4    SYSCLK
   302                                SMB5    SYSCLK
   303                                ENDM
   304                        Fsys_500K MACRO
   305                                SMB4    SYSCLK
   306                                SMB5    SYSCLK
   307                                ENDM
   308                        
   309                        Fsub_Fext MACRO
   310                                SMB6    SYSCLK
   311                                ENDM
   312                        Fsub_32KCLK     MACRO
   313                                RMB6    SYSCLK
   314                                ENDM
   315                        
   316                        Fcpu_Fext  MACRO
   317                                SMB7    SYSCLK
   318                                ENDM
   319                        Fcpu_Fsys  MACRO
   320                                RMB7    SYSCLK
   321                                ENDM
   322                        
   323                        ;------------------------------------
   324                        DIV_8KHZ  MACRO
   325                                RMB0    DIVC
   326                                RMB1    DIVC
   327                        		RMB5	DIVC
   328                                ENDM
   329                        DIV_16KHZ  MACRO
   330                                SMB0    DIVC
   331                                RMB1    DIVC
   332                        		RMB5	DIVC
   333                                ENDM
   334                        DIV_512HZ  MACRO
   335                                RMB0    DIVC
   336                                SMB1    DIVC
   337                        		RMB5	DIVC
   338                                ENDM
   339                        DIV_1KHZ  MACRO
   340                                SMB0    DIVC
   341                                SMB1    DIVC
   342                        		RMB5	DIVC
   343                                ENDM
   344                        DIV_256HZ  MACRO
   345                        		SMB5	DIVC
   346                                ENDM
   347                        ;------------------------------------
   348                        WDTC_CLK_256HZ   MACRO
   349                                RMB0    WDTC
   350                                RMB1    WDTC
   351                                ENDM
   352                        WDTC_CLK_DIV     MACRO
   353                                SMB0    WDTC
   354                                RMB1    WDTC
   355                                ENDM
   356                        WDTC_CLK_TMR1   MACRO
   357                                RMB0    WDTC
   358                                SMB1    WDTC
   359                                ENDM
   360                        WDTC_CLK_LCDS    MACRO
   361                                SMB0    WDTC
   362                                SMB1    WDTC
   363                                ENDM
   364                        
   365                        WDTC_CLR MACRO
   366                                RMB2    WDTC
   367                                ENDM
   368                        
   369                        WDTC_ON  MACRO
   370                                SMB3    WDTC
   371                                ENDM
   372                        WDTC_OFF MACRO
   373                                RMB3    WDTC
   374                                ENDM
   375                        
   376                        IF_WDTC MACRO   LAB
   377                                BBS4    WDTC,LAB
   378                                ENDM
   379                        
   380                        ;------------------------------------
   381                        TMR0_ON MACRO
   382                                SMB0    TMRC
   383                                ENDM
   384                        TMR0_OFF MACRO
   385                                RMB0    TMRC
   386                                ENDM
   387                        TMR0_CLK_FOSC   MACRO
   388                                SMB0    TMCLK
   389                                RMB1    TMCLK
   390                                ENDM
   391                        TMR0_CLK_FSUB    MACRO
   392                                RMB0    TMCLK
   393                                RMB1    TMCLK
   394                                RMB0	PADF1
   395                                ENDM
   396                        TMR0_CLK_128K	macro
   397                        		RMB0    TMCLK
   398                                SMB1    TMCLK
   399                                ENDM
   400                        TMR0_CLK_32K	macro
   401                        		RMB0    TMCLK
   402                                RMB1    TMCLK
   403                                SMB0	PADF1
   404                                ENDM
   405                        TMR0_CLK_1M   MACRO
   406                                SMB0    TMCLK
   407                                SMB1    TMCLK
   408                                RMB6	TMRC
   409                                ENDM
   410                        
   411                        TMR1_ON MACRO
   412                                SMB1    TMRC
   413                                ENDM
   414                        TMR1_OFF MACRO
   415                                RMB1    TMRC
   416                                ENDM
   417                        TMR1_CLK_TMR0   MACRO
   418                                RMB2    TMCLK
   419                                RMB3    TMCLK
   420                                ENDM
   421                        TMR1_CLK_512Hz    MACRO
   422                                SMB2    TMCLK
   423                                RMB3    TMCLK
   424                                ENDM
   425                        TMR1_CLK_128K	macro
   426                        		RMB2    TMCLK
   427                                SMB3    TMCLK
   428                                ENDM
   429                        TMR1_CLK_1M		macro
   430                        		SMB2    TMCLK
   431                                SMB3    TMCLK
   432                                ENDM
   433                        
   434                        TMR2_ON MACRO
   435                                SMB2    TMRC
   436                                ENDM
   437                        TMR2_OFF MACRO
   438                                RMB2    TMRC
   439                                ENDM
   440                        ;TMR2_CLK_1KDIV2    MACRO
   441                        ;       RMB4    TMCLK
   442                        ;        RMB5    TMCLK
   443                        ;        ENDM
   444                        ;TMR2_CLK_1KDIV3    MACRO
   445                        ;        SMB4    TMCLK
   446                        ;        RMB5    TMCLK
   447                        ;        ENDM
   448                        ;TMR2_CLK_FOSCDIV8  MACRO
   449                        ;        RMB4    TMCLK
   450                        ;        SMB5    TMCLK
   451                        ;        ENDM
   452                        ;TMR2_CLK_FSUB      MACRO
   453                        ;        SMB4    TMCLK
   454                        ;        SMB5    TMCLK
   455                        ;        ENDM
   456                        
   457                        
   458                        TONE_2KHZ       MACRO
   459                                RMB2    DIVC
   460                                RMB3    DIVC
   461                                ENDM
   462                        TONE_TMR0_2     MACRO
   463                                SMB2    DIVC
   464                                RMB3    DIVC
   465                                ENDM
   466                        TONE_L       MACRO
   467                                RMB2    DIVC
   468                                SMB3    DIVC
   469                                ENDM
   470                        TONE_H       MACRO
   471                                SMB2    DIVC
   472                                SMB3    DIVC
   473                                ENDM
   474                        ;------------------------------------
   475                        EN_DIV_IRQ     MACRO
   476                                SMB0    IER
   477                                ENDM
   478                        EN_TMR0_IRQ     MACRO
   479                                SMB1    IER
   480                                ENDM
   481                        EN_TMR1_IRQ     MACRO
   482                                SMB2    IER
   483                                ENDM
   484                        EN_TMR2_IRQ     MACRO
   485                                SMB3    IER
   486                                ENDM
   487                        EN_KEY_IRQ      MACRO
   488                                SMB4    IER
   489                                ENDM
   490                        EN_PA_IRQ      MACRO
   491                                SMB4    IER
   492                                ENDM
   493                        EN_EXT_IRQ      MACRO
   494                                SMB5    IER
   495                                ENDM
   496                        EN_LCD_IRQ      MACRO
   497                                SMB6    IER
   498                                ENDM
   499                        
   500                        DIS_DIV_IRQ     MACRO
   501                                RMB0    IER
   502                                ENDM
   503                        DIS_TMR0_IRQ     MACRO
   504                                RMB1    IER
   505                                ENDM
   506                        DIS_TMR1_IRQ     MACRO
   507                                RMB2    IER
   508                                ENDM
   509                        DIS_TMR2_IRQ     MACRO
   510                                RMB3    IER
   511                                ENDM
   512                        DIS_KEY_IRQ      MACRO
   513                                RMB4    IER
   514                                ENDM
   515                        DIS_PA_IRQ		 MACRO
   516                                RMB4    IER
   517                                ENDM
   518                        DIS_EXT_IRQ      MACRO
   519                                RMB5    IER
   520                                ENDM
   521                        DIS_LCD_IRQ      MACRO
   522                                RMB6    IER
   523                                ENDM
   524                        
   525                        CLR_DIV_IRQ_FLAG MACRO
   526                                RMB0    IFR
   527                                ENDM
   528                        CLR_TMR0_IRQ_FLAG      MACRO
   529                                RMB1    IFR
   530                                ENDM
   531                        CLR_TMR1_IRQ_FLAG      MACRO
   532                                RMB2    IFR
   533                                ENDM
   534                        CLR_TMR2_IRQ_FLAG      MACRO
   535                                RMB3    IFR
   536                                ENDM
   537                        CLR_KEY_IRQ_FLAG      MACRO
   538                                RMB4    IFR
   539                                ENDM
   540                        CLR_PA_IRQ_FLAG      MACRO
   541                                RMB4    IFR
   542                                ENDM
   543                        CLR_PA_IRQF      MACRO
   544                                RMB4    IFR
   545                                ENDM
   546                        CLR_EXT_IRQ_FLAG       MACRO
   547                                RMB5    IFR
   548                                ENDM
   549                        CLR_LCD_IRQ_FLAG       MACRO
   550                                RMB6    IFR
   551                                ENDM
   552                        
   553                        IF_DIV_IRQ_FLAG MACRO   LAB1
   554                                BBS0    IFR,LAB1
   555                                ENDM
   556                        IF_TMR0_IRQ_FLAG MACRO   LAB1
   557                                BBS1    IFR,LAB1
   558                                ENDM
   559                        IF_TMR1_IRQ_FLAG MACRO   LAB1
   560                                BBS2    IFR,LAB1
   561                                ENDM
   562                        IF_TMR2_IRQ_FLAG MACRO   LAB1
   563                                BBS3    IFR,LAB1
   564                                ENDM
   565                        IF_KEY_IRQ_FLAG MACRO   LAB1
   566                                BBS4    IFR,LAB1
   567                                ENDM
   568                        IF_EXT_IRQ_FLAG MACRO   LAB1
   569                                BBS5    IFR,LAB1
   570                                ENDM
   571                        IF_LCD_IRQ_FLAG MACRO   LAB1
   572                                BBS6    IFR,LAB1
   573                                ENDM
   574                        ;------------------------------------
   575                        LCD_ON           MACRO
   576                                SMB4    TMRC
   577                                ENDM
   578                        LCD_OFF          MACRO
   579                                RMB4    TMRC
   580                                ENDM
   581                        
   582                        PWM_ON  MACRO
   583                        		SMB0	SYSCLK	;Strong Mode
   584                                SMB7    TMRC
   585                                ENDM
   586                        PWM_OFF MACRO
   587                                RMB7    TMRC
   588                        ;		lda		R_Strong_2S
   589                        ;		bne		?Skip
   590                        		RMB0	SYSCLK	;WeakMode
   591                        ?Skip:
   592                                ENDM
   593                        ;DAC_ON		MACRO
   594                        ;	SMB7	P_TMRCTRL
   595                        ;	ENDM
   596                        ;DAC_OFF		MACRO
   597                        ;	RMB7	P_TMRCTRL
   598                        ;	ENDM
   599                        
   600                        IF_PWM_ON       MACRO   LAB
   601                                BBS7    TMRC,LAB
   602                                ENDM
   603                        IF_PWM_OFF      MACRO   LAB
   604                                BBR7    TMRC,LAB
   605                                ENDM
   606                        
   607                        SEL_PWM MACRO
   608                                SMB1    AUDCR
   609                                ENDM
   610                        DAC_LATCH_TMR0	MACRO
   611                        		SMB5	AUDCR
   612                        		ENDM
   613                        SEL_TONE MACRO
   614                                RMB2    AUDCR
   615                                RMB4    AUDCR
   616                                RMB5    AUDCR
   617                                ENDM
   618                        
   619                        SEL_MELODY  MACRO
   620                                RMB2    AUDCR
   621                                SMB4    AUDCR
   622                        ;        SMB5    AUDCR
   623                                RMB5    AUDCR
   624                                ENDM
   625                        SEL_VOICE   MACRO
   626                                SMB2    AUDCR
   627                                RMB4    AUDCR
   628                                SMB5    AUDCR
   629                                ENDM
   630                        ;------------------------------------
   631                        ClrAllRam MACRO
   632                            LDA		#$00
   633                        	LDX		#$FF
   634                        	STA		$1800
   635                        ?ClrAllRamLoop:
   636                        	STA		$1800,X
   637                        	DEX
   638                        	BNE		?ClrAllRamLoop
   639                            ENDM
   640                        ;------------------------------------
   641                        CHECK_LCD	MACRO
   642                        	LDA		#11111110B
   643                        	STA		P_PC_DIR		;PC0 is Output
   644                        	LDA		#11111110B
   645                        	STA		P_PC			;PC0 Output "0"
   646                        	NOP
   647                        	NOP
   648                        	NOP
   649                        	LDA		P_PC
   650                        	AND		#00000010B
   651                        ?_Loop
   652                        	STA		P_Temp+1
   653                        	LDA		#$0F
   654                        ?_LoopPort
   655                        	DEC
   656                        	BNE		?_LoopPort
   657                        	LDA		P_PC
   658                        	AND		#00000010B
   659                        	STA		P_Temp
   660                        	CMP		P_Temp+1
   661                        	BNE		?_Loop
   662                        	BBS1	P_Temp,?LCD_R_Type
   663                        ?LCD_C_Type:
   664                        	LCD_C_TYPE
   665                        	LCD_ENCH_EN
   666                        	LCD_4COM
   667                        	LCD_DRIVE_8
   668                        	LCD_C_1_3_BAIS_3V
   669                        	JMP		?Exit
   670                        ?LCD_R_Type:
   671                        	LCD_R_TYPE
   672                        ;	LCD_ENCH_EN
   673                        	LCD_4COM
   674                        ;	LCD_DRIVE_8
   675                        	LCD_R_1_3_BAIS
   676                        
   677                        ?Exit:
   678                        	LDA		#$00
   679                        	STA		P_PC_IO
   680                        	STA		P_PC
   681                        ;	STA		P_PC_IO_Backup
   682                        ;	STA		P_PC_Backup
   683                        	ENDM
   684                        ;------------------------------------
   685                        ;------------------------------------
   685                        
    23                        	.INCLUDE	MACRO.MAC
     1                        ;***********************************************************************
     2                        BRA_IDX MACRO	MEM
     3                        	if	MEM<$100
     4                        	BRA	($80+MEM)
     5                        	else
     6                        	BRA	(MEM)
     7                        	endif
     8                        	ENDM
     9                        
    10                        LDLN	MACRO	mem
    11                        	if	mem<$100
    12                        	LDA	$780+mem
    13                        	else
    14                        	LDA	$700+mem
    15                        	endif
    16                        	ENDM
    17                        
    18                        LDHN	MACRO	mem
    19                        	if	mem<$100
    20                        	LDA	$F80+mem
    21                        	else
    22                        	LDA	$F00+mem
    23                        	endif
    24                        	ENDM
    25                        
    26                        STLN	MACRO	mem
    27                        	if	mem<$100
    28                        	STA	$780+mem
    29                        	else
    30                        	STA	$700+mem
    31                        	endif
    32                        	ENDM
    33                        
    34                        STHN	MACRO	mem
    35                        	if	mem<$100
    36                        	STA	$F80+mem
    37                        	else
    38                        	STA	$F00+mem
    39                        	endif
    40                        	ENDM
    41                        
    42                        LXLN	MACRO	mem
    43                        	if	mem<$100
    44                        	LDX	$780+mem
    45                        	else
    46                        	LDX	$700+mem
    47                        	endif
    48                        	ENDM
    49                        
    50                        LXHN	MACRO	mem
    51                        	if	mem<$100
    52                        	LDX	$F80+mem
    53                        	else
    54                        	LDX	$F00+mem
    55                        	endif
    56                        	ENDM
    57                        
    58                        SXLN	MACRO	mem
    59                        	if	mem<$100
    60                        	STX	$780+mem
    61                        	else
    62                        	STX	$700+mem
    63                        	endif
    64                        	ENDM
    65                        
    66                        SXHN	MACRO	mem
    67                        	if	mem<$100
    68                        	STX	$F80+mem
    69                        	else
    70                        	STX	$F00+mem
    71                        	endif
    72                        	ENDM
    73                        
    74                        LDLN_X	MACRO	mem
    75                        	if	mem<$100
    76                        	LDA	$780+mem,X
    77                        	else
    78                        	LDA	$700+mem,X
    79                        	endif
    80                        	ENDM
    81                        
    82                        STLN_X	MACRO	mem
    83                        	if	mem<$100
    84                        	STA	$780+mem,X
    85                        	else
    86                        	STA	$700+mem,X
    87                        	endif
    88                        	ENDM
    89                        
    90                        LDHN_X	MACRO	mem
    91                        	if	mem<$100
    92                        	LDA	$F80+mem,X
    93                        	else
    94                        	LDA	$F00+mem,X
    95                        	endif
    96                        	ENDM
    97                        
    98                        STHN_X	MACRO	mem
    99                        	if	mem<$100
   100                        	STA	$F80+mem,X
   101                        	else
   102                        	STA	$F00+mem,X
   103                        	endif
   104                        	ENDM
   105                        
   106                        INCHN_X	MACRO	mem
   107                        	if	mem<$100
   108                        	INC	$F80+mem,X
   109                        	else
   110                        	INC	$F00+mem,X
   111                        	endif
   112                        	ENDM
   113                        
   114                        DECHN_X	MACRO	mem
   115                        	if	mem<$100
   116                        	DEC	$F80+mem,X
   117                        	else
   118                        	DEC	$F00+mem,X
   119                        	endif
   120                        	ENDM
   121                        
   122                        ADCLN	MACRO	mem
   123                        	if	mem<$100
   124                        	ADC	$780+mem
   125                        	else
   126                        	ADC	$700+mem
   127                        	endif
   128                        	ENDM
   129                        
   130                        ADCHN	MACRO	mem
   131                        	if	mem<$100
   132                        	ADC	$F80+mem
   133                        	else
   134                        	ADC	$F00+mem
   135                        	endif
   136                        	ENDM
   137                        
   138                        CMPLN	MACRO	mem
   139                        	if	mem<$100
   140                        	CMP	$780+mem
   141                        	else
   142                        	CMP	$700+mem
   143                        	endif
   144                        	ENDM
   145                        
   146                        CMPHN	MACRO	mem
   147                        	if	mem<$100
   148                        	CMP	$F80+mem
   149                        	else
   150                        	CMP	$F00+mem
   151                        	endif
   152                        	ENDM
   153                        
   154                        INCLN	MACRO	mem
   155                        	if	mem<$100
   156                        	INC	$780+mem
   157                        	else
   158                        	INC	$700+mem
   159                        	endif
   160                        	ENDM
   161                        
   162                        INCHN	MACRO	mem
   163                        	if	mem<$100
   164                        	INC	$F80+mem
   165                        	else
   166                        	INC	$F00+mem
   167                        	endif
   168                        	ENDM
   169                        
   170                        DECLN	MACRO	mem
   171                        	if	mem<$100
   172                        	DEC	$780+mem
   173                        	else
   174                        	DEC	$700+mem
   175                        	endif
   176                        	ENDM
   177                        
   178                        DECHN	MACRO	mem
   179                        	if	mem<$100
   180                        	DEC	$F80+mem
   181                        	else
   182                        	DEC	$F00+mem
   183                        	endif
   184                        	ENDM
   185                        
   186                        LDA_X	MACRO	mem
   187                        	if	mem<$100
   188                        	LDA	$80+mem,X
   189                        	else
   190                        	LDA	mem,X
   191                        	endif
   192                        	ENDM
   193                        
   194                        STA_X	MACRO	mem
   195                        	if	mem<$100
   196                        	STA	$80+mem,X
   197                        	else
   198                        	STA	mem,X
   199                        	endif
   200                        	ENDM
   201                        
   202                        STZ_X	MACRO	mem
   203                        	if	mem<$100
   204                        	STZ	$80+mem,X
   205                        	else
   206                        	STZ	mem,X
   207                        	endif
   208                        	ENDM
   209                        
   210                        INC_X	MACRO	mem
   211                        	if	mem<$100
   212                        	INC	$80+mem,X
   213                        	else
   214                        	INC	mem,X
   215                        	endif
   216                        	ENDM
   217                        
   218                        ADC_X	MACRO	mem
   219                        	if	mem<$100
   220                        	ADC	$80+mem,X
   221                        	else
   222                        	ADC	mem,X
   223                        	endif
   224                        	ENDM
   225                        
   226                        SBC_X	MACRO	mem
   227                        	if	mem<$100
   228                        	SBC	$80+mem,X
   229                        	else
   230                        	SBC	mem,X
   231                        	endif
   232                        	ENDM
   233                        
   234                        CMP_X	MACRO	mem
   235                        	if	mem<$100
   236                        	CMP	$80+mem,X
   237                        	else
   238                        	CMP	mem,X
   239                        	endif
   240                        	ENDM
   241                        
   242                        ASLLN	MACRO	mem
   243                        	if	mem<$100
   244                        	ASL	$780+mem
   245                        	else
   246                        	ASL	$700+mem
   247                        	endif
   248                        	ENDM
   249                        
   250                        LSRLN	MACRO	mem
   251                        	if	mem<$100
   252                        	LSR	$780+mem
   253                        	else
   254                        	LSR	$700+mem
   255                        	endif
   256                        	ENDM
   257                        
   258                        ROLLN	MACRO	mem
   259                        	if	mem<$100
   260                        	ROL	$780+mem
   261                        	else
   262                        	ROL	$700+mem
   263                        	endif
   264                        	ENDM
   265                        
   266                        RORLN	MACRO	mem
   267                        	if	mem<$100
   268                        	ROR	$780+mem
   269                        	else
   270                        	ROR	$700+mem
   271                        	endif
   272                        	ENDM
   273                        
   274                        ASLHN	MACRO	mem
   275                        	if	mem<$100
   276                        	ASL	$F80+mem
   277                        	else
   278                        	ASL	$F00+mem
   279                        	endif
   280                        	ENDM
   281                        
   282                        LSRHN	MACRO	mem
   283                        	if	mem<$100
   284                        	LSR	$F80+mem
   285                        	else
   286                        	LSR	$F00+mem
   287                        	endif
   288                        	ENDM
   289                        
   290                        ROLHN	MACRO	mem
   291                        	if	mem<$100
   292                        	ROL	$F80+mem
   293                        	else
   294                        	ROL	$F00+mem
   295                        	endif
   296                        	ENDM
   297                        
   298                        RORHN	MACRO	mem
   299                        	if	mem<$100
   300                        	ROR	$F80+mem
   301                        	else
   302                        	ROR	$F00+mem
   303                        	endif
   304                        	ENDM
   305                        
   306                        
   307                        BR0	MACRO	PARA,VAR,LABLE
   308                        	BBR@<VAR.mod.8> PARA,LABLE
   309                        	ENDM
   310                        
   311                        BR1	MACRO	PARA,VAR,LABLE
   312                        	BBS@<VAR.mod.8>	PARA,LABLE
   313                        	ENDM
   314                        
   315                        xSETB	MACRO	flag,bit
   316                        	SMB@<bit>  flag
   317                        	ENDM
   318                        
   319                        xCLRB	MACRO	flag,bit
   320                        	RMB@<bit>  flag
   321                        	ENDM
   321                        
    24                        ;***************************************
    25                        STACK_BOT		EQU		FFH                     ;堆栈底部
    26                        ;***************************************
    27                        	.PROG										;程序开始
    28                        V_RESET:
    29 00:F000: 1A            	NOP
    30 00:F001: 1A            	NOP
    31 00:F002: 1A            	NOP
    32 00:F003: 5E FF         	LDX		#STACK_BOT
    33 00:F005: 1E            	TXS	      ;使用这个值初始化堆栈指针，这通常是为了设置堆栈的底部地址，确保程序运行中堆栈的正确使用。
    34 00:F006: 53 B7         	LDA		#$B7	;#$07
    35 00:F008: 7F 1D         	STA		SYSCLK	;设置系统时钟
    36 00:F00A: 73 3E         	LDA		FUSE
    37 00:F00C: 7F 2F         	STA		MF	;精准主频3.64M
    38                        ;***************************************
    39                        	ClrAllRam	;清空ram
+   39 00:F00E: 53 00          LDA #$0000
+   39 00:F010: 5E FF          LDX #$00FF
+   39 00:F012: 4F 00 18       STA $1800
+   39                        ?ClrAllRamLoop:
+   39 00:F015: 6F 00 18       STA $1800,X
+   39 00:F018: 0F             DEX
+   39 00:F019: 12 FA          BNE ?ClrAllRamLoop
    40                        	WDTC_CLR
+   40 00:F01B: 22 1C          RMB2 WDTC
    41                        	;CHECK_LCD   ;初始化LCD
    42                        ;***************************************定时器初始化，特殊功能寄存器初始化
    43 00:F01D: 53 00         	LDA		#0
    44 00:F01F: 7F 0D         	STA		PADF1  ;定时器0的时钟源选择
    45 00:F021: 7F 10         	STA		TMR0   ;128HZ
    46 00:F023: 7F 12         	STA		TMR1   ;512
    47 00:F025: 7F 14         	STA		TMR2	;定时器的开始数
    48 00:F027: 7F 18         	STA		DIVC    ;分频控制器，定时器与DICV异步   2048
    49 00:F029: 7F 0E         	STA		IER     ;不允许中断
    50 00:F02B: 7F 0F         	STA		IFR     ;中断请求标志
    51 00:F02D: 7F 1F         	STA		AUD0    ;pwm输出值设置
    52 00:F02F: 7F 20         	STA		AUDCR   ;
    53 00:F031: 7F 05         	STA		PB
    54                        ;***************************************LCD初始化
    55                        	LCD_C_TYPE
+   55 00:F033: 2F 1A          SMB7 LCDCOM
+   55 00:F035: 28 09          SMB0 PCSEG
+   55 00:F037: 29 09          SMB1 PCSEG
+   55 00:F039: 2A 09          SMB2 PCSEG
+   55 00:F03B: 2B 09          SMB3 PCSEG
    56                        	LCD_ENCH_EN
+   56 00:F03D: 2E 1A          SMB6 LCDCOM
    57                        	;LCD_4COM
    58                        	LCD_DRIVE_8
+   58 00:F03F: 28 19          SMB0 LCDCTRL
+   58 00:F041: 29 19          SMB1 LCDCTRL
    59 00:F043: 22 19         	RMB2	LCDCTRL
    60 00:F045: 23 19         	RMB3	LCDCTRL
    61 00:F047: 20 1A         	RMB0	P_LCD_COM
    62 00:F049: 29 1A         	SMB1	P_LCD_COM;设置为4com
    63 00:F04B: 25 1A         	RMB5	P_LCD_COM;设置LCD中断频率为32Hz
    64                        ;***************************************端口配置（等待图纸）
    65 00:F04D: 15 1D F1      	JSR		L_Scankey_INIT
    66 00:F050: 53 00         	LDA		#0
    67 00:F052: 7F 09         	STA		P_PCSEG
    68                        	PB2_PB2_NOMS
+   68 00:F054: 20 0C          RMB0 PADF0
+   68 00:F056: 22 06          RMB2 PBTYPE
    69                        	PB3_PB3_NOMS
+   69 00:F058: 21 0C          RMB1 PADF0
+   69 00:F05A: 23 06          RMB3 PBTYPE
    70 00:F05C: 53 00         	LDA		#0
    71 00:F05E: 7F 05         	STA		P_PB
    72                        	; PC67_SEG
    73                        	PC03_SEG
+   73 00:F060: 28 09          SMB0 PCSEG
+   73 00:F062: 29 09          SMB1 PCSEG
+   73 00:F064: 2A 09          SMB2 PCSEG
+   73 00:F066: 2B 09          SMB3 PCSEG
    74                        	PC45_SEG
+   74 00:F068: 2C 09          SMB4 PCSEG
    75                        	PC67_SEG
+   75 00:F06A: 2D 09          SMB5 PCSEG
    76                        	PD03_SEG
+   76 00:F06C: 2E 09          SMB6 PCSEG
    77                        	PD47_SEG;
+   77 00:F06E: 2F 09          SMB7 PCSEG
    78 00:F070: 15 ED F0      	JSR		L_Init_SystemRam_Prog   ;初始化系统RAM并禁用所有断电保留的RAM
    79 00:F073: 15 05 F1      	JSR		L_Dis_All_DisRam_Prog	;初始化系统RAM并禁用所有断电保留的RAM
    80                        ;***************************************开启中断
    81                        	DIV_1KHZ
+   81 00:F076: 28 18          SMB0 DIVC
+   81 00:F078: 29 18          SMB1 DIVC
+   81 00:F07A: 25 18          RMB5 DIVC
    82                        	TMR1_CLK_512Hz;初始化定时器1为256hz,定时器2为512hz
+   82 00:F07C: 2A 17          SMB2 TMCLK
+   82 00:F07E: 23 17          RMB3 TMCLK
    83 00:F080: 53 F7         	LDA		#247
    84 00:F082: 7F 14         	STA		TMR2
    85                        	LCD_ON
+   85 00:F084: 2C 16          SMB4 TMRC
    86                        	TMR1_ON;半秒计时
+   86 00:F086: 29 16          SMB1 TMRC
    87                        	EN_TMR1_IRQ              ;定时器和LCD使能
+   87 00:F088: 2A 0E          SMB2 IER
    88                        	EN_PA_IRQ;下降沿触发
+   88 00:F08A: 2C 0E          SMB4 IER
    89 00:F08C: 53 07         	LDA		#$07		;#$07    系统时钟和中断使能
    90 00:F08E: 7F 1D         	STA		SYSCLK		;Strong
    91 00:F090: 05            	CLI
    92                        ;***********************************************************************
    93                        ;***********************************************************************
    94                        MainLoop:
    95                        
    96 00:F091: 15 93 F8      	JSR		L_Display_Timer_Ms_Prog
    97 00:F094: 15 36 F1      	JSR		L_LCD_IRQ_WorkProg
    98 00:F097: 15 BA FA      	JSR		L_Half_Second_Prog
    99 00:F09A: 73 AE         	LDA		R_Reset_Time
   100 00:F09C: 12 F3         	BNE		MainLoop
   101 00:F09E: 73 D7         	LDA		R_Voice_Unit
   102 00:F0A0: 12 EF         	BNE		MainLoop
   103                        
   104                        
   105 00:F0A2: 2C 1D         	SMB4	SYSCLK;280k
   106 00:F0A4: 7F 1E         	STA		P_HALT
   107 00:F0A6: 24 1D         	RMB4	SYSCLK;560k
   108 00:F0A8: 17 E7         	BRA		MainLoop
   109                        
   110                        ;***********************************************************************
   111                        ;***********************************************************************
   112                        V_IRQ:
   113 00:F0AA: 0A            	PHA
   114 00:F0AB: 73 0E         	LDA		P_IER
   115 00:F0AD: 71 0F         	AND		P_IFR
   116 00:F0AF: 7F A4         	STA		R_Int_Backup
   117                        
   118 00:F0B1: 3E A4 33      	BBS6	R_Int_Backup,L_LcdIrq
   119 00:F0B4: 3B A4 12      	BBS3	R_Int_Backup,L_Timer2Irq
   120 00:F0B7: 3C A4 23      	BBS4	R_Int_Backup,L_PaIrp
   121 00:F0BA: 38 A4 08      	BBS0	R_Int_Backup,L_DivIrq
   122 00:F0BD: 3A A4 15      	BBS2	R_Int_Backup,L_Timer1Irq
   123 00:F0C0: 39 A4 0E      	BBS1	R_Int_Backup,L_Timer0Irq
   124 00:F0C3: 17 26         	BRA		L_EndIrq
   125                        
   126                        L_DivIrq:
   127                        	CLR_DIV_IRQ_FLAG
+  127 00:F0C5: 20 0F          RMB0 IFR
   128 00:F0C7: 17 22         	BRA		L_EndIrq
   129                        
   130                        L_Timer2Irq:
   131                        	CLR_TMR2_IRQ_FLAG
+  131 00:F0C9: 23 0F          RMB3 IFR
   132                        	WDTC_CLR
+  132 00:F0CB: 22 1C          RMB2 WDTC
   133 00:F0CD: 78 BC         	INC		R_Timer_Ms
   134 00:F0CF: 17 1A         	BRA		L_EndIrq
   135                        
   136                        L_Timer0Irq:
   137                        	CLR_TMR0_IRQ_FLAG
+  137 00:F0D1: 21 0F          RMB1 IFR
   138 00:F0D3: 17 16         	BRA		L_EndIrq
   139                        
   140                        L_Timer1Irq:
   141                        	CLR_TMR1_IRQ_FLAG
+  141 00:F0D5: 22 0F          RMB2 IFR
   142                        	WDTC_CLR
+  142 00:F0D7: 22 1C          RMB2 WDTC
   143 00:F0D9: 28 A6         	SMB0	Sys_Flag_B	;设置Half Second Flag
   144 00:F0DB: 17 0E         	BRA		L_EndIrq
   145                        
   146                        L_PaIrp:
   147                        	CLR_KEY_IRQ_FLAG
+  147 00:F0DD: 24 0F          RMB4 IFR
   148                        	EN_LCD_IRQ
+  148 00:F0DF: 2E 0E          SMB6 IER
   149                        	DIS_PA_IRQ
+  149 00:F0E1: 24 0E          RMB4 IER
   150 00:F0E3: 29 A5         	SMB1	Sys_Flag_A
   151 00:F0E5: 17 04         	BRA		L_EndIrq
   152                        L_LcdIrq:
   153                        	CLR_LCD_IRQ_FLAG
+  153 00:F0E7: 26 0F          RMB6 IFR
   154 00:F0E9: 28 A5         	SMB0	Sys_Flag_A	;设置LCD中断标志，64Hz扫描
   155                        L_EndIrq:
   156                        ;	BBS3	IFR,L_Timer2Irq
   157 00:F0EB: 0C            	PLA
   158 00:F0EC: 08            	RTI
   159                        ;***********************************************************************
   160                        .INCLUDE	Init.asm
     1                        ;------------------------------------------------------
     2                        L_Init_SystemRam_Prog:     ;初始化系统RAM的程序数据
     3 00:F0ED: 53 00         	LDA		#0
     4 00:F0EF: 7F CE         	STA		R_Mode
     5 00:F0F1: 53 04         	LDA		#4
     6 00:F0F3: 7F AE         	STA		R_Reset_Time
     7 00:F0F5: 53 18         	LDA		#24
     8 00:F0F7: 7F B8         	STA		R_Time_Year
     9 00:F0F9: 53 01         	LDA		#1
    10 00:F0FB: 7F B6         	STA		R_Time_Day
    11 00:F0FD: 7F B7         	STA		R_Time_Month
    12 00:F0FF: 15 3D FC      	JSR		L_Auto_Counter_Week
    13 00:F102: 2A A6         	SMB2	Sys_Flag_B
    14 00:F104: 09            	RTS
    15                        ;======================================================
    16                        L_Dis_All_DisRam_Prog:
    17 00:F105: 53 FF         	LDA		#$FF
    18 00:F107: 7F D8         	STA		P_Temp
    19                        L_All_DisRam:
    20 00:F109: 5E 00         	LDX		#0
    21                        L_Loop_DisplayRam:
    22 00:F10B: 73 D8         	LDA		P_Temp
    23 00:F10D: 6F 00 18      	STA		LCD_RamAddr,X
    24 00:F110: 0B            	INX
    25 00:F111: 1C            	TXA
    26 00:F112: 56 23         	CMP		#$23
    27 00:F114: 10 F5         	BCC		L_Loop_DisplayRam    ;C=0是跳转
    28 00:F116: 09            	RTS
    29                        ;----------------------------------------------------
    30                        L_Clr_All_DisRam_Prog:
    31 00:F117: 53 00         	LDA		#0
    32 00:F119: 7F D8         	STA		P_Temp
    33 00:F11B: 17 EC         	BRA		L_All_DisRam
    34                        
    35                        L_Scankey_INIT:
    36 00:F11D: 53 AD         	LDA	#10101101B;
    37                        	; LDA		#11110101B
    38 00:F11F: 7F 04         	STA		P_PA_IO;PA0输出,其余输入
    39 00:F121: 53 AD         	LDA		#10101101B
    40 00:F123: 7F 01         	STA		P_PA	;其他全部下拉
    41 00:F125: 53 AC         	LDA		#10101100B
    42 00:F127: 7F 02         	STA		P_PA_WAKE;	将PA做唤醒
    43 00:F129: 28 1D         	SMB0	P_SYSCLK
    44 00:F12B: 09            	RTS
    45                        
    46                        
    47                        
    48                        L_PA257_Input_Low:
    49 00:F12C: 53 AD         	LDA		#10101101B
    50 00:F12E: 7F 01         	STA		P_PA	;其他全部下拉
    51 00:F130: 09            	RTS
    52                        L_PA257_Input_High:
    53 00:F131: 53 01         	LDA		#00000001B
    54 00:F133: 7F 01         	STA		P_PA
    55                        	RTS
    55 00:F135: 09            
   161                        
   162                        .INCLUDE	Key\ScanKey.ASM
     1                        ;==================================================
     2                        L_LCD_IRQ_WorkProg:;
     3 00:F136: 30 A5 0C      	BBR0	Sys_Flag_A,L_END_LCD_IRQ_WorkProg;32hz扫键
     4 00:F139: 20 A5         	RMB0	Sys_Flag_A
     5 00:F13B: 15 B2 FE      	JSR		L_control_Beep_prog
     6 00:F13E: 73 AE         	LDA		R_Reset_Time
     7 00:F140: 12 03         	BNE		L_END_LCD_IRQ_WorkProg
     8 00:F142: 15 62 F1      	JSR		L_Scankey_Prog
     9                        L_END_LCD_IRQ_WorkProg:
    10 00:F145: 09                RTS
    11                        ; ==============================================
    12                        L_ScanKey_Null_Prog:;如果编码器没有开启退出并且扫描到空键，停止按键扫描
    13 00:F146: 73 D7         	LDA		R_Voice_Unit
    14 00:F148: 12 FB         	BNE		L_END_LCD_IRQ_WorkProg
    15                        	DIS_LCD_IRQ
+   15 00:F14A: 26 0E          RMB6 IER
    16                        	EN_PA_IRQ
+   16 00:F14C: 2C 0E          SMB4 IER
    17 00:F14E: 09            	RTS
    18                        L_Scankey_Prog_Ineffective:
    19 00:F14F: 53 E9         	LDA		#11101001B
    20 00:F151: 71 A5         	AND		Sys_Flag_A
    21 00:F153: 7F A5         	STA		Sys_Flag_A
    22 00:F155: 15 65 F4      	JSR		L_Scankey_usually_Prog
    23 00:F158: 73 B2         	LDA		P_Scankey_value_Temporary
    24 00:F15A: 12 E9         	BNE		L_END_LCD_IRQ_WorkProg;如果为0则执行空键程序
    25 00:F15C: 15 2C F1      	JSR		L_PA257_Input_Low
    26 00:F15F: 25 A5         	RMB5	Sys_Flag_A;清空无效标志位
    27 00:F161: 09            	RTS
    28                        
    29                        ;====================================================
    30                        L_Scankey_Prog:
    31 00:F162: 39 A5 24      	BBS1	Sys_Flag_A,L_Scankey_Prog_First;首次扫描判断
    32 00:F165: 3D A5 E7      	BBS5	Sys_Flag_A,L_Scankey_Prog_Ineffective
    33 00:F168: 3C A5 1B      	BBS4	Sys_Flag_A,L_Scankey_Prog_Fast_Plus_TO;快加情况
    34                        
    35 00:F16B: 32 A5 D8      	BBR2	Sys_Flag_A,L_ScanKey_Null_Prog;没有按键扫描标志
    36 00:F16E: 15 65 F4      	JSR		L_Scankey_usually_Prog
    37 00:F171: 73 B2         	LDA		P_Scankey_value_Temporary
    38 00:F173: 76 B1         	CMP		P_Scankey_value
    39 00:F175: 12 0C         	BNE		L_Scankey_Prog_Short_Press_TO
    40                        
    41 00:F177: 73 AF         	LDA		R_Scankey_Time
    42 00:F179: 56 40         	CMP		#D_Rscankey_TWO_Sec
    43 00:F17B: 11 03         	BCS		L_Scankey_Prog_Long_Press_TO
    44 00:F17D: 78 AF         	INC		R_Scankey_Time
    45 00:F17F: 09            	RTS
    46                        L_Scankey_Prog_Long_Press_TO:
    47 00:F180: 16 B4 F3      	JMP		L_Scankey_Prog_Long_Press
    48                        L_Scankey_Prog_Short_Press_TO:
    49 00:F183: 16 B1 F3      	JMP		L_Scankey_Prog_Short_Press
    50                        L_Scankey_Prog_Fast_Plus_TO:
    51 00:F186: 16 C9 F3      	JMP		L_Scankey_Prog_Fast_Plus
    52                        L_Scankey_Prog_First:
    53 00:F189: 53 C9         	LDA		#11001001B
    54 00:F18B: 71 A5         	AND		Sys_Flag_A
    55 00:F18D: 7F A5         	STA		Sys_Flag_A;清空无效标志位
    56 00:F18F: 73 B0         	LDA		P_Scankey_value_T_1
    57 00:F191: 12 10         	BNE		L_Scankey_Prog_First_1
    58 00:F193: 15 65 F4      	JSR		L_Scankey_usually_Prog
    59 00:F196: 73 B2         	LDA		P_Scankey_value_Temporary
    60 00:F198: 13 AC         	BEQ		L_ScanKey_Null_Prog
    61 00:F19A: 7F B1         	STA		P_Scankey_value
    62 00:F19C: 29 A5         	SMB1	Sys_Flag_A
    63 00:F19E: 53 01         	LDA		#1
    64 00:F1A0: 7F B0         	STA		P_Scankey_value_T_1
    65 00:F1A2: 09            	RTS
    66                        L_Scankey_Prog_First_1:
    67 00:F1A3: 53 00         	LDA		#0
    68 00:F1A5: 7F B0         	STA		P_Scankey_value_T_1
    69 00:F1A7: 15 65 F4      	JSR		L_Scankey_usually_Prog
    70 00:F1AA: 73 B2         	LDA		P_Scankey_value_Temporary
    71 00:F1AC: 76 B1         	CMP		P_Scankey_value
    72 00:F1AE: 12 43         	BNE		L_Scankey_Prog_First_OUT
    73 00:F1B0: 53 00         	LDA		#0
    74 00:F1B2: 7F D6         	STA		R_Close_Beep_Time
    75 00:F1B4: 7F D7         	STA		R_Voice_Unit
    76 00:F1B6: 7F D1         	STA		R_Set_Mode_Exit_Time
    77 00:F1B8: 7F D5         	STA		R_Alarm_Clock_Open_Beep_Time
    78 00:F1BA: 7F AF         	STA		R_Scankey_Time
    79                        
    80 00:F1BC: 2D A5         	SMB5	Sys_Flag_A
    81                        	; BBS4	Sys_Flag_D,L_Scankey_Short_ST_SP_Press_Prog_Alarm_TO
    82                        	; BBS4	Sys_Flag_C,L_Scankey_Short_ST_SP_Press_Prog_Alarm_TO;闹铃判断
    83 00:F1BE: 2A A5         	SMB2	Sys_Flag_A
    84 00:F1C0: 25 A5         	RMB5	Sys_Flag_A
    85                        
    86 00:F1C2: 73 B1         	LDA		P_Scankey_value
    87 00:F1C4: 56 08         	CMP		#D_Light_Press
    88 00:F1C6: 13 31         	BEQ		L_Control_Light_Prog_TO
    89                        ;=======================
    90                        ;-----按键无效键和按下触发的事件判定
    91 00:F1C8: 3B A5 2B      	BBS3	Sys_Flag_A,L_Scankey_Set_Mode_First_Press_Prog_TO
    92 00:F1CB: 73 B1         	LDA		P_Scankey_value
    93 00:F1CD: 56 04         	CMP		#D_Mode_Press
    94 00:F1CF: 13 2E         	BEQ		L_Scankey_Mode_Press_Prog_TO
    95 00:F1D1: 56 A4         	CMP		#D_Dis_All
    96 00:F1D3: 13 27         	BEQ		L_Control_All_Dis_Prog_TO
    97 00:F1D5: 73 CE         	LDA		R_Mode
    98 00:F1D7: 13 29         	BEQ		L_Clock_First_Press_Prog_TO
    99 00:F1D9: 56 01         	CMP		#1
   100 00:F1DB: 13 28         	BEQ		L_Alarm_First_Press_Prog_TO
   101 00:F1DD: 56 02         	CMP		#2
   102 00:F1DF: 13 27         	BEQ		L_Positive_Timer_First_Press_Prog_TO
   103 00:F1E1: 56 03         	CMP		#3
   104 00:F1E3: 13 26         	BEQ		L_Clock_Twice_First_Press_Prog_TO
   105 00:F1E5: 56 04         	CMP		#4
   106 00:F1E7: 13 25         	BEQ		L_Desitive_Timer_First_Press_Prog_TO
   107 00:F1E9: 53 00         	LDA		#0
   108 00:F1EB: 7F CE         	STA		R_Mode
   109 00:F1ED: 15 17 F1      	JSR		L_Clr_All_DisRam_Prog
   110 00:F1F0: 15 CC F6      	JSR		L_Display_Prog
   111                        
   112                        L_Scankey_Prog_First_OUT:
   113 00:F1F3: 2D A5         	SMB5	Sys_Flag_A
   114 00:F1F5: 09            	RTS
   115                        ;==============================================
   116                        L_Scankey_Set_Mode_First_Press_Prog_TO:
   117 00:F1F6: 16 1A F2      	JMP		L_Scankey_Set_Mode_First_Press_Prog
   118                        L_Control_Light_Prog_TO:
   119 00:F1F9: 16 F1 FD      	JMP		L_Control_Light_Prog
   120                        L_Control_All_Dis_Prog_TO:
   121 00:F1FC: 16 12 FE      	JMP		L_Control_All_Dis_Prog
   122                        L_Scankey_Mode_Press_Prog_TO:
   123 00:F1FF: 16 2B F2      	JMP		L_Scankey_Mode_Press_Prog
   124                        L_Clock_First_Press_Prog_TO:
   125 00:F202: 16 54 F2      	JMP		L_Clock_First_Press_Prog
   126                        L_Alarm_First_Press_Prog_TO:
   127 00:F205: 16 70 F2      	JMP		L_Alarm_First_Press_Prog
   128                        L_Positive_Timer_First_Press_Prog_TO:
   129 00:F208: 16 AF F2      	JMP		L_Positive_Timer_First_Press_Prog
   130                        L_Clock_Twice_First_Press_Prog_TO:
   131 00:F20B: 16 F1 F2      	JMP		L_Clock_Twice_First_Press_Prog
   132                        L_Desitive_Timer_First_Press_Prog_TO:
   133 00:F20E: 16 FA F2      	JMP		L_Desitive_Timer_First_Press_Prog
   134                        L_Scankey_Set_Mode_Mode_First_Press_Prog_TO
   135 00:F211: 16 3C F3      	JMP		L_Scankey_Set_Mode_Mode_First_Press_Prog
   136                        L_Scankey_Set_Mode_Reset_First_Press_Prog_TO:
   137 00:F214: 16 65 F3      	JMP		L_Scankey_Set_Mode_Reset_First_Press_Prog
   138                        L_Scankey_Set_Mode_ST_SP_First_Press_Prog_TO:
   139 00:F217: 16 98 F3      	JMP		L_Scankey_Plus_Prog
   140                        ;============================================
   141                        L_Scankey_Set_Mode_First_Press_Prog:
   142 00:F21A: 73 B1         	LDA		P_Scankey_value
   143 00:F21C: 56 04         	CMP		#D_Mode_Press
   144 00:F21E: 13 F1         	BEQ		L_Scankey_Set_Mode_Mode_First_Press_Prog_TO
   145 00:F220: 56 20         	CMP		#D_Reset_Press
   146 00:F222: 13 F0         	BEQ		L_Scankey_Set_Mode_Reset_First_Press_Prog_TO
   147 00:F224: 56 80         	CMP		#D_ST_SP_Press
   148 00:F226: 13 EF         	BEQ		L_Scankey_Set_Mode_ST_SP_First_Press_Prog_TO
   149 00:F228: 2D A5         	SMB5	Sys_Flag_A
   150                        	RTS
   150 00:F22A: 09            
   163                        .INCLUDE	Key\Scankey_First_Press.asm
     1                        ;======================================================================
     2                        ;非设置模式下吗,任何模式Mode键按下触发，更改显示模式
     3                        ;======================================================================
     4                        L_Scankey_Mode_Press_Prog:
     5 00:F22B: 15 42 FF      	JSR		L_Beep_1s
     6 00:F22E: 2D A5         	SMB5	Sys_Flag_A
     7 00:F230: 15 17 F1      	JSR		L_Clr_All_DisRam_Prog
     8 00:F233: 73 CE         	LDA		R_Mode
     9 00:F235: 56 04         	CMP		#4
    10 00:F237: 11 0D         	BCS		L_Scankey_Mode_Press_Prog_Clr
    11 00:F239: 78 CE         	INC		R_Mode
    12 00:F23B: 56 02         	CMP		#2
    13 00:F23D: 13 0D         	BEQ		L_Scankey_Mode_Press_Prog_2
    14 00:F23F: 56 03         	CMP		#3
    15 00:F241: 13 0D         	BEQ		L_Scankey_Mode_Press_Prog_3
    16                        L_Scankey_Mode_Press_Prog_1:
    17 00:F243: 16 CC F6      	JMP		L_Display_Prog
    18                        L_Scankey_Mode_Press_Prog_Clr:
    19 00:F246: 53 00         	LDA		#0
    20 00:F248: 7F CE         	STA		R_Mode
    21 00:F24A: 17 F7         	BRA		L_Scankey_Mode_Press_Prog_1
    22                        
    23                        L_Scankey_Mode_Press_Prog_2:
    24 00:F24C: 20 A6         	RMB0	Sys_Flag_B
    25 00:F24E: 17 F3         	BRA		L_Scankey_Mode_Press_Prog_1
    26                        L_Scankey_Mode_Press_Prog_3:
    27 00:F250: 25 A8         	RMB5	Sys_Flag_D
    28 00:F252: 17 EF         	BRA		L_Scankey_Mode_Press_Prog_1
    29                        ;======================================================================
    30                        ;非设置模式下吗,时钟模式短按Reset无反应，长按进入时间设置模式
    31                        ;短按ST/SP键切换12/24小时制，全部没有按键音,按下触发
    32                        ;======================================================================
    33                        L_Clock_First_Press_Prog:
    34 00:F254: 73 B1         	LDA		P_Scankey_value
    35 00:F256: 56 80         	CMP		#D_ST_SP_Press
    36 00:F258: 13 07         	BEQ		L_Clock_First_ST_SP_Press_Prog
    37 00:F25A: 56 20         	CMP		#D_Reset_Press
    38 00:F25C: 13 02         	BEQ		L_Clock_First_Press_Prog_OUT
    39 00:F25E: 2D A5         	SMB5	Sys_Flag_A
    40                        L_Clock_First_Press_Prog_OUT:
    41 00:F260: 09            	RTS
    42                        L_Clock_First_ST_SP_Press_Prog:
    43 00:F261: 2D A5         	SMB5	Sys_Flag_A
    44 00:F263: 3A A6 05      	BBS2	Sys_Flag_B,L_Clock_First_Press_PM_Prog
    45 00:F266: 2A A6         	SMB2	Sys_Flag_B
    46 00:F268: 16 5D F7      	JMP		L_Display_Time_Hr_Prog
    47                        L_Clock_First_Press_PM_Prog:
    48 00:F26B: 22 A6         	RMB2	Sys_Flag_B
    49 00:F26D: 16 5D F7      	JMP		L_Display_Time_Hr_Prog
    50                        ;======================================================================
    51                        ;非设置模式下吗,闹钟模式，短按ST/SP键切换闹钟界面和整点报时界面，无按键音
    52                        ;短按RESET，在整点报时界面，开启或关闭整点报时，按下触发
    53                        ;在闹钟界面,按下触发闹铃模式的切换，关闭，普通和贪睡
    54                        ;======================================================================
    55                        L_Alarm_First_Press_Prog:
    56 00:F270: 73 B1         	LDA		P_Scankey_value
    57 00:F272: 56 80         	CMP		#D_ST_SP_Press
    58 00:F274: 13 06         	BEQ		L_Alarm_First_ST_SP_Press_Prog
    59 00:F276: 56 20         	CMP		#D_Reset_Press
    60 00:F278: 13 11         	BEQ		L_Alarm_First_Reset_Press_Prog
    61 00:F27A: 2D A5         	SMB5	Sys_Flag_A
    62                        L_Alarm_First_ST_SP_Press_Prog:
    63 00:F27C: 2D A5         	SMB5	Sys_Flag_A
    64 00:F27E: 38 A7 05      	BBS0	Sys_Flag_C,L_Alarm_First_Press_Change_Prog;如果为1跳转整点报时切换为闹钟界面
    65 00:F281: 28 A7         	SMB0	Sys_Flag_C
    66 00:F283: 16 3F F8      	JMP		L_Display_Alarm_Hourly_Prog
    67                        L_Alarm_First_Press_Change_Prog:
    68 00:F286: 20 A7         	RMB0	Sys_Flag_C
    69 00:F288: 16 FD F6      	JMP		L_Display_Alarm_Prog
    70                        ;------------------------------------
    71                        L_Alarm_First_Reset_Press_Prog:
    72 00:F28B: 38 A7 12      	BBS0	Sys_Flag_C,L_Alarm_First_Reset_Press_Prog_Every_Hour_Mode
    73 00:F28E: 73 CA         	LDA		R_Alarm_Mode
    74 00:F290: 56 02         	CMP		#2
    75 00:F292: 11 05         	BCS		L_Alarm_First_Reset_Press_Prog_Alarm_Prog_Clr
    76 00:F294: 78 CA         	INC		R_Alarm_Mode
    77 00:F296: 16 C8 F8      	JMP		L_Dis_Alm_Snz_Symbol_Prog
    78                        L_Alarm_First_Reset_Press_Prog_Alarm_Prog_Clr:
    79 00:F299: 53 00         	LDA		#0
    80 00:F29B: 7F CA         	STA		R_Alarm_Mode
    81 00:F29D: 16 BE F8      	JMP		L_Clr_Alm_Snz_Symbol_Prog
    82                        L_Alarm_First_Reset_Press_Prog_Every_Hour_Mode:
    83 00:F2A0: 2D A5         	SMB5	Sys_Flag_A
    84 00:F2A2: 39 A7 05      	BBS1	Sys_Flag_C,L_Alarm_First_Reset_Press_Prog_Every_Hour_Mode_Close
    85 00:F2A5: 29 A7         	SMB1	Sys_Flag_C
    86 00:F2A7: 16 DA F8      	JMP		L_Dis_Sig_Symbol_Prog
    87                        L_Alarm_First_Reset_Press_Prog_Every_Hour_Mode_Close:
    88 00:F2AA: 21 A7         	RMB1	Sys_Flag_C
    89 00:F2AC: 16 DF F8      	JMP		L_Clr_Sig_Symbol_Prog
    90                        ;======================================================================
    91                        ;非设置模式下吗,正计时模式，短按ST/SP键，开始或停止计时，存在按键音
    92                        ;短按RESET，在计时途中，中途测量被设置，再次按下被取消
    93                        ;======================================================================
    94                        L_Positive_Timer_First_Press_Prog:
    95 00:F2AF: 2D A5         	SMB5	Sys_Flag_A
    96 00:F2B1: 73 B1         	LDA		P_Scankey_value
    97 00:F2B3: 56 80         	CMP		#D_ST_SP_Press
    98 00:F2B5: 13 05         	BEQ		L_Positive_Timer_First_ST_SP_Press_Prog
    99 00:F2B7: 56 20         	CMP		#D_Reset_Press
   100 00:F2B9: 13 19         	BEQ		L_Positive_Timer_First_RESET_Press_Prog
   101 00:F2BB: 09            	RTS
   102                        ;--------------------------------------------------
   103                        L_Positive_Timer_First_ST_SP_Press_Prog:
   104 00:F2BC: 38 A8 09      	BBS0	Sys_Flag_D,L_Positive_Timer_First_SP_Press_Prog
   105 00:F2BF: 28 A8         	SMB0	Sys_Flag_D
   106                        	CLR_TMR2_IRQ_FLAG
+  106 00:F2C1: 23 0F          RMB3 IFR
   107                        	TMR2_ON
+  107 00:F2C3: 2A 16          SMB2 TMRC
   108                        	EN_TMR2_IRQ
+  108 00:F2C5: 2B 0E          SMB3 IER
   109                        L_Positive_Timer_First_ST_SP_Press_Prog_OUT:
   110 00:F2C7: 09            	RTS
   111                        L_Positive_Timer_First_SP_Press_Prog:
   112 00:F2C8: 20 A8         	RMB0	Sys_Flag_D
   113                        	DIS_TMR2_IRQ
+  113 00:F2CA: 23 0E          RMB3 IER
   114                        	TMR2_OFF
+  114 00:F2CC: 22 16          RMB2 TMRC
   115 00:F2CE: 3D A8 F6      	BBS5	Sys_Flag_D,L_Positive_Timer_First_ST_SP_Press_Prog_OUT
   116 00:F2D1: 16 0F F7      	JMP		L_Display_Postive_Timer_Prog
   117                        ;----------------------------------------------------
   118                        L_Positive_Timer_First_RESET_Press_Prog:
   119 00:F2D4: 2D A5         	SMB5	Sys_Flag_A
   120 00:F2D6: 38 A8 0E      	BBS0	Sys_Flag_D,L_Positive_Timer_Midway_Measurement
   121 00:F2D9: 3D A8 11      	BBS5	Sys_Flag_D,L_Positive_Timer_Midway_Measurement_2
   122 00:F2DC: 53 00         	LDA		#0
   123 00:F2DE: 7F BD         	STA		R_Timer_Sec
   124 00:F2E0: 7F BE         	STA		R_Timer_Min
   125 00:F2E2: 7F BF         	STA		R_Timer_Hr
   126                        L_Positive_Timer_Midway_Measurement_1:
   127 00:F2E4: 16 0F F7      	JMP		L_Display_Postive_Timer_Prog
   128                        L_Positive_Timer_Midway_Measurement:
   129 00:F2E7: 3D A8 03      	BBS5	Sys_Flag_D,L_Positive_Timer_Midway_Measurement_2
   130 00:F2EA: 2D A8         	SMB5	Sys_Flag_D
   131 00:F2EC: 09            	RTS
   132                        L_Positive_Timer_Midway_Measurement_2:
   133 00:F2ED: 25 A8         	RMB5	Sys_Flag_D
   134 00:F2EF: 17 F3         	BRA		L_Positive_Timer_Midway_Measurement_1
   135                        ;======================================================================
   136                        ;非设置模式下吗,第二时间模式，长按RESET，进入设置模式
   137                        ;======================================================================
   138                        L_Clock_Twice_First_Press_Prog:
   139 00:F2F1: 73 B1         	LDA		P_Scankey_value
   140 00:F2F3: 56 20         	CMP		#D_Reset_Press
   141 00:F2F5: 13 02         	BEQ		L_Clock_Twice_First_Press_Prog_OUT
   142 00:F2F7: 2D A5         	SMB5	Sys_Flag_A
   143                        L_Clock_Twice_First_Press_Prog_OUT:
   144 00:F2F9: 09            	RTS
   145                        ;======================================================================
   146                        ;非设置模式下吗,倒计时模式，长按RESET，进入设置模式，ST/SP开始或停止计时
   147                        ;======================================================================
   148                        L_Desitive_Timer_First_Press_Prog:
   149 00:F2FA: 73 B1         	LDA		P_Scankey_value
   150 00:F2FC: 56 20         	CMP		#D_Reset_Press
   151 00:F2FE: 13 25         	BEQ		L_Desitive_Timer_First_Reset_Press_Prog
   152 00:F300: 56 80         	CMP		#D_ST_SP_Press
   153 00:F302: 13 03         	BEQ		L_Desitive_Timer_First_ST_SP_Press_Prog
   154 00:F304: 2D A5         	SMB5	Sys_Flag_A
   155 00:F306: 09            	RTS
   156                        L_Desitive_Timer_First_ST_SP_Press_Prog:
   157 00:F307: 2D A8         	SMB5	Sys_Flag_D
   158 00:F309: 39 A8 16      	BBS1	Sys_Flag_D,L_Desitive_Timer_First_ST_SP_Press_Prog_ST
   159 00:F30C: 29 A8         	SMB1	Sys_Flag_D
   160 00:F30E: 3A A8 E8      	BBS2	Sys_Flag_D,L_Clock_Twice_First_Press_Prog_OUT;是否进入过倒计时功能
   161 00:F311: 2A A8         	SMB2	Sys_Flag_D
   162 00:F313: 73 C2         	LDA		R_Timer_Hr_Countdown
   163 00:F315: 70 C1         	ORA		R_Timer_Min_Countdown
   164 00:F317: 12 E0         	BNE		L_Clock_Twice_First_Press_Prog_OUT
   165 00:F319: 53 18         	LDA		#24
   166 00:F31B: 7F C2         	STA		R_Timer_Hr_Countdown
   167 00:F31D: 7F C5         	STA		R_Timer_Hr_Backup
   168 00:F31F: 16 21 F7      	JMP		L_Display_Destive_Timer_Prog
   169                        L_Desitive_Timer_First_ST_SP_Press_Prog_ST:
   170 00:F322: 21 A8         	RMB1	Sys_Flag_D
   171 00:F324: 09            	RTS
   172                        L_Desitive_Timer_First_Reset_Press_Prog:
   173 00:F325: 39 A8 11      	BBS1	Sys_Flag_D,L_Desitive_Timer_First_Reset_Press_Prog_1
   174 00:F328: 22 A8         	RMB2	Sys_Flag_D
   175 00:F32A: 73 C5         	LDA		R_Timer_Hr_Backup
   176 00:F32C: 7F C2         	STA		R_Timer_Hr_Countdown
   177 00:F32E: 73 C4         	LDA		R_Timer_Min_Backup
   178 00:F330: 7F C1         	STA		R_Timer_Min_Countdown
   179 00:F332: 53 00         	LDA		#0
   180 00:F334: 7F C0         	STA		R_Timer_Sec_Countdown
   181 00:F336: 16 CC F6      	JMP		L_Display_Prog
   182                        
   183                        L_Desitive_Timer_First_Reset_Press_Prog_1:
   184 00:F339: 2D A5         	SMB5	Sys_Flag_A
   185                        	RTS
   185 00:F33B: 09            
   164                        .INCLUDE	Key\Scankey_First_Set_Mode.asm
     1                        ;==========================================
     2                        ;设置模式下，按下mode键更换设置的情况
     3                        L_Scankey_Set_Mode_Mode_First_Press_Prog:
     4 00:F33C: 2D A5             SMB5    Sys_Flag_A
     5 00:F33E: 73 CE             LDA     R_Mode
     6 00:F340: 56 02             CMP     #2
     7 00:F342: 13 14             BEQ     L_Scankey_Set_Mode_Mode_First_Press_Prog_OUT
     8 00:F344: 1B                TAX
     9 00:F345: 63 60 F3          LDA     Table_Set_Mode,X
    10 00:F348: 7F D8             STA     P_Temp
    11 00:F34A: 73 CF             LDA     R_Mode_Set
    12 00:F34C: 76 D8             CMP     P_Temp
    13 00:F34E: 11 09             BCS     L_Scankey_Set_Mode_Mode_First_Press_Prog_1
    14 00:F350: 15 4B F6          JSR     L_Display_Set_Mode_Prog
    15 00:F353: 78 CF             INC     R_Mode_Set
    16 00:F355: 15 4B F6          JSR     L_Display_Set_Mode_Prog
    17                        L_Scankey_Set_Mode_Mode_First_Press_Prog_OUT:
    18 00:F358: 09                RTS
    19                        
    20                        L_Scankey_Set_Mode_Mode_First_Press_Prog_1:
    21 00:F359: 53 00             LDA     #0
    22 00:F35B: 7F CF             STA     R_Mode_Set
    23 00:F35D: 16 4B F6          JMP     L_Display_Set_Mode_Prog
    24                        Table_Set_Mode:
    25 00:F360: 05                DB      5
    26 00:F361: 03                DB      3
    27 00:F362: 00                DB      0
    28 00:F363: 01                DB      1
    29 00:F364: 01                DB      1
    30                        ;============================================
    31                        ;设置模式下按下Reset键
    32                        ;=============================================
    33                        L_Scankey_Set_Mode_Reset_First_Press_Prog:
    34 00:F365: 2D A5             SMB5    Sys_Flag_A
    35 00:F367: 53 00             LDA     #0
    36 00:F369: 7F CF             STA     R_Mode_Set
    37 00:F36B: 23 A5             RMB3    Sys_Flag_A
    38 00:F36D: 15 CC F6          JSR     L_Display_Prog
    39 00:F370: 73 CE             LDA     R_Mode
    40 00:F372: 56 01             CMP     #1
    41 00:F374: 12 E2             BNE     L_Scankey_Set_Mode_Mode_First_Press_Prog_OUT
    42 00:F376: 73 C8             LDA     R_Alarm_Clock_Day
    43 00:F378: 70 C9             ORA     R_Alarm_Clock_Month
    44 00:F37A: 12 05             BNE     L_Scankey_Set_Mode_Reset_First_Press_Prog_1
    45 00:F37C: 53 00             LDA     #0
    46 00:F37E: 7F CB             STA     R_Alarm_Clock_Mode
    47 00:F380: 09                RTS
    48                        L_Scankey_Set_Mode_Reset_First_Press_Prog_1:
    49 00:F381: 73 C8             LDA     R_Alarm_Clock_Day
    50 00:F383: 12 05             BNE     L_Scankey_Set_Mode_Reset_First_Press_Prog_2
    51 00:F385: 53 02             LDA     #2
    52 00:F387: 7F CB             STA     R_Alarm_Clock_Mode
    53 00:F389: 09                RTS
    54                        L_Scankey_Set_Mode_Reset_First_Press_Prog_2:
    55 00:F38A: 73 C9             LDA     R_Alarm_Clock_Month
    56 00:F38C: 12 05             BNE     L_Scankey_Set_Mode_Reset_First_Press_Prog_3
    57 00:F38E: 53 03             LDA     #3
    58 00:F390: 7F CB             STA     R_Alarm_Clock_Mode
    59 00:F392: 09                RTS
    60                        L_Scankey_Set_Mode_Reset_First_Press_Prog_3:
    61 00:F393: 53 01             LDA     #1
    62 00:F395: 7F CB             STA     R_Alarm_Clock_Mode
    63 00:F397: 09                RTS
    64                        ;============================================
    65                        ;设置模式下按下ST/SP键
    66                        ;=============================================
    67                        L_Scankey_Plus_Prog:
    68 00:F398: 06                CLD
    69 00:F399: 73 CE             LDA     R_Mode
    70 00:F39B: 04                CLC
    71 00:F39C: 18                ROL
    72 00:F39D: 1B                TAX
    73 00:F39E: 63 A8 F3          LDA     Table_Plus+1,X
    74 00:F3A1: 0A                PHA
    75 00:F3A2: 63 A7 F3          LDA     Table_Plus,X
    76 00:F3A5: 0A                PHA
    77 00:F3A6: 09                RTS
    78                        Table_Plus:
    79 00:F3A7: E1 F3             DW      L_Scankey_Plus_Time_Prog-1
    80 00:F3A9: 47 F4             DW      L_Scankey_Plus_Alarm_Clock_Prog-1
    81 00:F3AB: 27 F4             DW      L_Scankey_Plus_Positive_Prog-1
    82 00:F3AD: 17 F4             DW      L_Scankey_Plus_Another_Time_Prog-1
    83 00:F3AF: 28 F4             DW      L_Scankey_Plus_Desitive_Prog-1
    84                        ;===========================================
    85                        L_Scankey_Prog_Short_Press:
    86 00:F3B1: 2D A5             SMB5    Sys_Flag_A
    87 00:F3B3: 09                RTS
    88                        L_Scankey_Prog_Long_Press:
    89 00:F3B4: 3B A5 0F          BBS3    Sys_Flag_A,L_Scankey_Prog_Fast_Set
    90 00:F3B7: 2B A5             SMB3    Sys_Flag_A
    91 00:F3B9: 2D A5             SMB5    Sys_Flag_A
    92 00:F3BB: 53 00             LDA     #0
    93 00:F3BD: 7F CF             STA     R_Mode_Set
    94 00:F3BF: 73 CE             LDA     R_Mode
    95 00:F3C1: 12 EE             BNE     L_Scankey_Prog_Short_Press
    96 00:F3C3: 16 DB F9          JMP     L_Clr_Time_Week_Prog
    97                        
    98                        L_Scankey_Prog_Fast_Set:
    99 00:F3C6: 2C A5             SMB4    Sys_Flag_A;快加
   100 00:F3C8: 09                RTS
   101                        L_Scankey_Prog_Fast_Plus:
   102 00:F3C9: 15 65 F4          JSR     L_Scankey_usually_Prog
   103 00:F3CC: 73 B2             LDA     P_Scankey_value_Temporary
   104 00:F3CE: 76 B1             CMP     P_Scankey_value
   105 00:F3D0: 12 DF             BNE     L_Scankey_Prog_Short_Press
   106 00:F3D2: 73 D2             LDA     R_Fast_Plus_Time
   107 00:F3D4: 56 04             CMP     #4
   108 00:F3D6: 11 03             BCS     L_Scankey_Prog_Fast_Plus_1
   109 00:F3D8: 78 D2             INC     R_Fast_Plus_Time
   110 00:F3DA: 09                RTS
   111                        L_Scankey_Prog_Fast_Plus_1:
   112 00:F3DB: 53 00             LDA     #0
   113 00:F3DD: 7F D2             STA     R_Fast_Plus_Time
   114 00:F3DF: 16 98 F3          JMP     L_Scankey_Plus_Prog
   114                        
   165                        .INCLUDE	Key\Plus.asm
     1                        L_Scankey_Plus_Time_Prog:
     2 00:F3E2: 15 EB F3          JSR     L_Scankey_Plus_Time_Prog_1
     3 00:F3E5: 15 3D FC          JSR		L_Auto_Counter_Week
     4 00:F3E8: 16 4B F6          JMP     L_Display_Set_Mode_Prog
     5                        L_Scankey_Plus_Time_Prog_1:
     6 00:F3EB: 06                CLD
     7 00:F3EC: 73 CF             LDA     R_Mode_Set
     8 00:F3EE: 04                CLC
     9 00:F3EF: 18                ROL
    10 00:F3F0: 1B                TAX
    11 00:F3F1: 63 FB F3          LDA     Table_Plus_1+1,X
    12 00:F3F4: 0A                PHA
    13 00:F3F5: 63 FA F3          LDA     Table_Plus_1,X
    14 00:F3F8: 0A                PHA
    15 00:F3F9: 09                RTS
    16                        
    17                        Table_Plus_1:
    18 00:F3FA: 05 F4             DW      L_Scankey_Plus_Time_Sec_Prog-1
    19 00:F3FC: 69 FB             DW      L_Update_Time_Hr_Prog-1
    20 00:F3FE: 64 FB             DW      L_Update_Time_Min_Prog-1
    21 00:F400: 7F FB             DW      L_Update_Time_Year_Prog-1
    22 00:F402: 78 FB             DW      L_Update_Time_Month_Prog-1
    23 00:F404: 70 FB             DW      L_Update_Time_Day_Prog-1
    24                        L_Scankey_Plus_Time_Sec_Prog:
    25 00:F406: 73 B3             LDA     R_Time_Sec
    26 00:F408: 7F D8             STA     P_Temp
    27 00:F40A: 53 00             LDA     #0
    28 00:F40C: 7F B3             STA     R_Time_Sec
    29 00:F40E: 73 D8             LDA     P_Temp
    30 00:F410: 56 1E             CMP     #30
    31 00:F412: 11 01             BCS     L_Scankey_Plus_Time_Sec_Prog_1
    32 00:F414: 09                RTS
    33                        L_Scankey_Plus_Time_Sec_Prog_1:
    34 00:F415: 16 65 FB          JMP     L_Update_Time_Min_Prog
    35                        ;==============================================
    36                        ;第二时间的加法
    37                        ;============================================
    38                        L_Scankey_Plus_Another_Time_Prog:
    39 00:F418: 73 CF             LDA     R_Mode_Set
    40 00:F41A: 12 06             BNE     L_Scankey_Plus_Another_Time_Prog_Min
    41 00:F41C: 15 9D FB          JSR     L_Update_Another_Time_Hr_Prog
    42 00:F41F: 16 4B F6          JMP     L_Display_Set_Mode_Prog
    43                        L_Scankey_Plus_Another_Time_Prog_Min:
    44 00:F422: 15 98 FB          JSR     L_Update_Another_Time_Min_Prog
    45 00:F425: 16 4B F6          JMP     L_Display_Set_Mode_Prog
    46                        ;=====================================
    47                        L_Scankey_Plus_Positive_Prog:
    48 00:F428: 09                RTS
    49                        ;=====================================
    50                        L_Scankey_Plus_Desitive_Prog:
    51 00:F429: 53 00             LDA     #0
    52 00:F42B: 7F C0             STA     R_Timer_Sec_Countdown
    53 00:F42D: 7F C3             STA     R_Timer_Sec_Backup
    54 00:F42F: 73 CF             LDA     R_Mode_Set
    55 00:F431: 12 0B             BNE     L_Scankey_Plus_Desitive_Prog_Min
    56 00:F433: 15 C8 FD          JSR     L_Update_Timer_Hr_Prog_Desitive_INC
    57 00:F436: 73 C2             LDA     R_Timer_Hr_Countdown
    58 00:F438: 7F C5             STA     R_Timer_Hr_Backup
    59 00:F43A: 16 4B F6          JMP     L_Display_Set_Mode_Prog
    60 00:F43D: 09                RTS
    61                        L_Scankey_Plus_Desitive_Prog_Min:
    62 00:F43E: 15 CF FD          JSR     L_Update_Timer_Min_Prog_Desitive_INC
    63 00:F441: 73 C1             LDA     R_Timer_Min_Countdown
    64 00:F443: 7F C4             STA     R_Timer_Min_Backup
    65 00:F445: 16 4B F6          JMP     L_Display_Set_Mode_Prog
    66                        
    67                        L_Scankey_Plus_Alarm_Clock_Prog:
    68 00:F448: 15 4E F4          JSR     L_Scankey_Plus_Alarm_Clock_Prog_1
    69 00:F44B: 16 4B F6          JMP     L_Display_Set_Mode_Prog
    70                        
    71                        L_Scankey_Plus_Alarm_Clock_Prog_1:
    72 00:F44E: 06                CLD
    73 00:F44F: 73 CF             LDA     R_Mode_Set
    74 00:F451: 04                CLC
    75 00:F452: 18                ROL
    76 00:F453: 1B                TAX
    77 00:F454: 63 5E F4          LDA     Table_Plus_2+1,X
    78 00:F457: 0A                PHA
    79 00:F458: 63 5D F4          LDA     Table_Plus_2,X
    80 00:F45B: 0A                PHA
    81 00:F45C: 09                RTS
    82                        Table_Plus_2:
    83 00:F45D: 42 FD             DW      L_Update_Alarm_Clock_Min_Prog-1
    84 00:F45F: 47 FD             DW      L_Update_Alarm_Clock_Hr_Prog-1
    85 00:F461: 55 FD             DW      L_Update_Alarm_Clock_Month_Prog-1
    86 00:F463: 4E FD             DW      L_Update_Alarm_Clock_Day_Prog-1
    86                        
   166                        .INCLUDE	Key\Scankey_Normal.asm
     1                        L_Scankey_usually_Prog:
     2 00:F465: 15 2C F1          JSR		L_PA257_Input_Low;对按键进行初始化
     3 00:F468: 15 37 FF      	JSR		L_ScanKey_Delay_Prog
     4 00:F46B: 73 01         	LDA		P_PA
     5 00:F46D: 51 AC         	AND		#D_Key_value;将所需要的值相与
     6 00:F46F: 7F B2         	STA		P_Scankey_value_Temporary
     7 00:F471: 15 31 F1      	JSR		L_PA257_Input_High
     8                        	RTS
     8 00:F474: 09            
   167                        
   168                        .INCLUDE	Display\Disp.asm
     1                        ;===========================================================
     2                        ;程序功能：	显示8BIT字段
     3                        ;程序入口：	A =  显示内容
     4                        ;			X =  ofc
     5                        ;影响资源：P_Temp，P_Temp+1，P_Temp+2，P_Temp+3,X，A
     6                        ;===========================================================
     7                        L_Dis_8Bit_DigitDot_Prog:
     8                        ;	STA		P_Temp
     9                        ;	LDA		Table_Digit_Addr_Offset,X
    10 00:F475: 7C D9         	STX		P_Temp+1;显示在那个位置上
    11 00:F477: 1B            	TAX
    12 00:F478: 63 DF F4      	LDA		Table_Digit_DataDot,X;查要显示的数对应的段码
    13 00:F47B: 7E D9         	LDX		P_Temp+1
    14                        F_DispPro:
    15 00:F47D: 7F D8         	STA		P_Temp;保存显示的数对应的段码
    16 00:F47F: 7C D9         	STX		P_Temp+1;再次保存显示位置
    17 00:F481: 53 07         	LDA		#7
    18 00:F483: 7F DB         	STA		P_Temp+3	;显示段数
    19                        L_Judge_Dis_8Bit_DigitDot:;显示循环的开始
    20 00:F485: 7E D9         	LDX		P_Temp+1	;加载位置索引到x
    21 00:F487: 63 5D F5      	LDA		Lcd_bit,X	;加载com线
    22 00:F48A: 7F DA         	STA		P_Temp+2
    23 00:F48C: 63 F4 F4      	LDA		Lcd_byte,X	;加载SEG线
    24 00:F48F: 1B            	TAX
    25 00:F490: 7B D8         	ROR		P_Temp		;循环右移
    26 00:F492: 10 0A         	BCC		L_CLR		;c=0是清除
    27 00:F494: 63 00 18      	LDA		LCD_RamAddr,X	;加载LCD RAM地址
    28 00:F497: 70 DA         	ORA		P_Temp+2		;将COM和SEG信息与LCD RAM地址进行逻辑或操作
    29 00:F499: 6F 00 18      	STA		LCD_RamAddr,X	;将结果写回LCD RAM，更新显示
    30 00:F49C: 17 0A         	BRA		L_Inc_Dis_Index_Prog	;跳转到显示索引增加的子程序。
    31                        L_CLR:
    32 00:F49E: 63 00 18      	LDA		LCD_RamAddr,X	;加载LCD RAM的地址
    33 00:F4A1: 70 DA         	ORA		P_Temp+2		;将COM和SEG信息与LCD RAM地址进行逻辑或操作
    34 00:F4A3: 72 DA         	EOR		P_Temp+2		;进行异或操作，用于清除对应的段。
    35 00:F4A5: 6F 00 18      	STA		LCD_RamAddr,X	;将结果写回LCD RAM，清除对应位置。
    36                        L_Inc_Dis_Index_Prog:		;增加显示索引，减少显示段数
    37 00:F4A8: 78 D9         	INC		P_Temp+1		;增加P_Temp+1（位置索引）
    38 00:F4AA: 79 DB         	DEC		P_Temp+3		;减少P_Temp+3（段数
    39 00:F4AC: 12 D7         	BNE		L_Judge_Dis_8Bit_DigitDot	;如果段数不为0，回到循环开始，否则退出
    40 00:F4AE: 09            	RTS
    41                        
    42                        F_DispPro_8bit:
    43 00:F4AF: 7F D8         	STA		P_Temp			;保存段码的值
    44 00:F4B1: 7C D9         	STX		P_Temp+1
    45 00:F4B3: 53 08         	LDA		#8
    46 00:F4B5: 7F DB         	STA		P_Temp+3	;显示段数
    47 00:F4B7: 17 CC         	BRA		L_Judge_Dis_8Bit_DigitDot
    48                        ;-----------------------------------------
    49                        F_DispSymbol:		;input Xcc -> ofs
    50 00:F4B9: 15 C9 F4      	JSR		F_DispSymbol_Com
    51 00:F4BC: 6F 00 18      	STA		LCD_RamAddr,X	;实现显示
    52 00:F4BF: 09            	RTS
    53                        
    54                        F_ClrpSymbol:		;input Xcc -> ofs
    55 00:F4C0: 15 C9 F4      	JSR		F_DispSymbol_Com	;清除显示
    56 00:F4C3: 72 DA         	EOR		P_Temp+2
    57 00:F4C5: 6F 00 18      	STA		LCD_RamAddr,X
    58 00:F4C8: 09            	RTS
    59                        
    60                        F_DispSymbol_Com:
    61 00:F4C9: 63 5D F5      	LDA		Lcd_bit,X	;加载X寄存器对应的COM线
    62 00:F4CC: 7F DA         	STA		P_Temp+2
    63 00:F4CE: 63 F4 F4      	LDA		Lcd_byte,X	;加载X寄存器对应的SEG线
    64 00:F4D1: 1B            	TAX
    65 00:F4D2: 63 00 18      	LDA		LCD_RamAddr,X;加载LCD	RAM	地址
    66 00:F4D5: 70 DA         	ORA		P_Temp+2
    67 00:F4D7: 09            	RTS
    68                        ;============================================================
    69                        ;===============================================
    70                        L_ROR_4Bit_Prog:
    71                        L_ROR4Bit_Prog:
    72                        L_LSR4Bit_Prog:
    73                        F_MSBToLSB:
    74 00:F4D8: 19            	ROR
    75 00:F4D9: 19            	ROR
    76 00:F4DA: 19            	ROR
    77 00:F4DB: 19            	ROR
    78 00:F4DC: 51 0F         	AND		#$0F
    79 00:F4DE: 09            	RTS
    80                        ;================================================
    81                        ;********************************************
    82                        Table_Digit_DataDot:	;显示内容对应显示的段码
    83                                   ;hgfedcba
    84 00:F4DF: 3F            	.BYTE 	3fh	;0
    85 00:F4E0: 06            	.BYTE	06h	;1
    86 00:F4E1: 5B            	.BYTE	5bh	;2
    87 00:F4E2: 4F            	.BYTE	4fh	;3
    88 00:F4E3: 66            	.BYTE	66h	;4
    89 00:F4E4: 6D            	.BYTE	6dh	;5
    90 00:F4E5: 7D            	.BYTE	7dh	;6
    91 00:F4E6: 07            	.BYTE	07h	;7
    92 00:F4E7: 7F            	.BYTE	7fh	;8
    93 00:F4E8: 6F            	.BYTE	6fh	;9
    94 00:F4E9: 00            	.BYTE	00h	;清除10
    95 00:F4EA: 40            	.BYTE	01000000B;负号11
    96 00:F4EB: 76            	.BYTE	01110110B;H12
    97 00:F4EC: 50            	.BYTE	01010000B;r13
    98 00:F4ED: 37            	.BYTE	00110111B;N	14
    99 00:F4EE: 31            	.BYTE	00110001B;T的左边15
   100 00:F4EF: 3E            	.BYTE	00111110B;U.16
   101 00:F4F0: 79            	.BYTE	01111001B;E.17
   102 00:F4F1: 77            	.BYTE	01110111B;A.18
   103 00:F4F2: 71            	.BYTE	01110001B;F	19
   104 00:F4F3: 38            	.BYTE	00111000B;L	20
   105                        
   106                        
   107                        
   107                        
   169                        .INCLUDE	Display\Lcdtab.asm
     1                        ;--------COM------------
     2                        c0	.equ	0
     3                        c1	.equ	1
     4                        c2	.equ	2
     5                        c3	.equ	3
     6                        c4	.equ	4
     7                        c5	.equ	5
     8                        c6	.equ	6
     9                        ;;--------SEG------------
    10                        ; s47	.equ	47
    11                        ; s46	.equ	46
    12                        ; s45	.equ	45
    13                        ; s44	.equ	44
    14                        ; s43	.equ	43
    15                        s42	.equ	42
    16                        s41	.equ	41
    17                        s40	.equ	40
    18                        ; s39	.equ	39
    19                        ; s38	.equ	38
    20                        ; s37	.equ	37
    21                        ; s36	.equ	36
    22                        ; s35	.equ	35
    23                        ; s34	.equ	34
    24                        ; s33	.equ	33
    25                        ; s32	.equ	32
    26                        ; s31	.equ	31
    27                        ; s30	.equ	30
    28                        ; s29	.equ	29
    29                        ; s28	.equ	28
    30                        ; s27	.equ	27
    31                        ; s26	.equ	26
    32                        ; s25	.equ	25
    33                        ; s24	.equ	24
    34                        ; s23	.equ	23
    35                        ; s22	.equ	22
    36                        ; s21	.equ	21
    37                        ; s20	.equ	20
    38                        ; s19	.equ	19
    39                        ; s18	.equ	18
    40                        ; s17	.equ	17
    41                        ; s16	.equ	16
    42                        s15	.equ	15
    43                        s14	.equ	14
    44                        s13	.equ	13
    45                        s12	.equ	12
    46                        s11	.equ	11
    47                        s10	.equ	10
    48                        s9	.equ	9
    49                        s8	.equ	8
    50                        s7	.equ	7
    51                        s6	.equ	6
    52                        s5	.equ	5
    53                        s4	.equ	4
    54                        s3	.equ	3
    55                        s2	.equ	2
    56                        s1	.equ	1
    57                        s0	.equ	0
    58                        
    59                        
    60                        .MACRO  db_c_s	com,seg
    61                                  .BYTE com*6+seg/8
    62                        .ENDMACRO
    63                        
    64                        .MACRO  db_c_y	com,seg
    65                        	      .BYTE 1.shl.(seg-seg/8*8)
    66                        .ENDMACRO
    67                        
    68                        Lcd_byte:	;段码
    69                        lcd_table1:
    70                        lcd_d1 .equ	lcd_table1-lcd_table1
    71                        	db_c_s	c0,s3	;;1A
+   71 00:F4F4: 00             .DB c0*$0006+s3/$0008
    72                        	db_c_s	c0,s2	;;1B
+   72 00:F4F5: 00             .DB c0*$0006+s2/$0008
    73                        	db_c_s	c0,s6	;;1C
+   73 00:F4F6: 00             .DB c0*$0006+s6/$0008
    74                        	db_c_s	c0,s8	;;1D
+   74 00:F4F7: 01             .DB c0*$0006+s8/$0008
    75                        	db_c_s	c0,s7	;;1E
+   75 00:F4F8: 00             .DB c0*$0006+s7/$0008
    76                        	db_c_s	c0,s4	;;1F
+   76 00:F4F9: 00             .DB c0*$0006+s4/$0008
    77                        	db_c_s	c0,s5	;;1G
+   77 00:F4FA: 00             .DB c0*$0006+s5/$0008
    78                        
    79                        lcd_d2	.equ lcd_d1+7
    80                        	db_c_s	c0,s9	;;2A
+   80 00:F4FB: 01             .DB c0*$0006+s9/$0008
    81                        	db_c_s	c0,s10	;;2B
+   81 00:F4FC: 01             .DB c0*$0006+s10/$0008
    82                        	db_c_s	c0,s13	;;2C
+   82 00:F4FD: 01             .DB c0*$0006+s13/$0008
    83                        	db_c_s	c0,s15	;;2D
+   83 00:F4FE: 01             .DB c0*$0006+s15/$0008
    84                        	db_c_s	c0,s14	;;2E
+   84 00:F4FF: 01             .DB c0*$0006+s14/$0008
    85                        	db_c_s	c0,s11	;;2F
+   85 00:F500: 01             .DB c0*$0006+s11/$0008
    86                        	db_c_s	c0,s12	;;2G
+   86 00:F501: 01             .DB c0*$0006+s12/$0008
    87                        
    88                        lcd_d3	.equ lcd_d2+7
    89                        
    90                        	db_c_s	c2,s0	;;3A
+   90 00:F502: 0C             .DB c2*$0006+s0/$0008
    91                        	db_c_s	c1,s1	;;3B
+   91 00:F503: 06             .DB c1*$0006+s1/$0008
    92                        	db_c_s	c1,s2	;;3C
+   92 00:F504: 06             .DB c1*$0006+s2/$0008
    93                        	db_c_s	c1,s3	;;3D
+   93 00:F505: 06             .DB c1*$0006+s3/$0008
    94                        	db_c_s	c2,s3	;;3E
+   94 00:F506: 0C             .DB c2*$0006+s3/$0008
    95                        	db_c_s	c2,s1	;;3F
+   95 00:F507: 0C             .DB c2*$0006+s1/$0008
    96                        	db_c_s	c2,s2	;;3G
+   96 00:F508: 0C             .DB c2*$0006+s2/$0008
    97                        
    98                        lcd_d4	.equ lcd_d3+7
    99                        
   100                        	db_c_s	c2,s4	;;4A
+  100 00:F509: 0C             .DB c2*$0006+s4/$0008
   101                        	db_c_s	c1,s4	;;4B
+  101 00:F50A: 06             .DB c1*$0006+s4/$0008
   102                        	db_c_s	c1,s6	;;4C
+  102 00:F50B: 06             .DB c1*$0006+s6/$0008
   103                        	db_c_s	c1,s7	;;4D
+  103 00:F50C: 06             .DB c1*$0006+s7/$0008
   104                        	db_c_s	c2,s6	;;4E
+  104 00:F50D: 0C             .DB c2*$0006+s6/$0008
   105                        	db_c_s	c2,s5	;;4F
+  105 00:F50E: 0C             .DB c2*$0006+s5/$0008
   106                        	db_c_s	c1,s5	;;4G
+  106 00:F50F: 06             .DB c1*$0006+s5/$0008
   107                        
   108                        
   109                        
   110                        lcd_d5	.equ lcd_d4+7
   111                        
   112                        	db_c_s	c1,s9	;;5A
+  112 00:F510: 07             .DB c1*$0006+s9/$0008
   113                        	db_c_s	c1,s10	;;5B
+  113 00:F511: 07             .DB c1*$0006+s10/$0008
   114                        	db_c_s	c1,s13	;;5C
+  114 00:F512: 07             .DB c1*$0006+s13/$0008
   115                        	db_c_s	c1,s15	;;5D
+  115 00:F513: 07             .DB c1*$0006+s15/$0008
   116                        	db_c_s	c1,s14	;;5E
+  116 00:F514: 07             .DB c1*$0006+s14/$0008
   117                        	db_c_s	c1,s11	;;5F
+  117 00:F515: 07             .DB c1*$0006+s11/$0008
   118                        	db_c_s	c1,s12	;;5G
+  118 00:F516: 07             .DB c1*$0006+s12/$0008
   119                        lcd_d6	.equ lcd_d5+7
   120                        
   121                        	db_c_s	c1,s42	;;6A
+  121 00:F517: 0B             .DB c1*$0006+s42/$0008
   122                        	db_c_s	c1,s41	;;6B
+  122 00:F518: 0B             .DB c1*$0006+s41/$0008
   123                        	db_c_s	c1,s40	;;6C
+  123 00:F519: 0B             .DB c1*$0006+s40/$0008
   124                        	db_c_s	c1,s42	;;6D
+  124 00:F51A: 0B             .DB c1*$0006+s42/$0008
   125                        	db_c_s	c1,s42	;;6E
+  125 00:F51B: 0B             .DB c1*$0006+s42/$0008
   126                        	db_c_s	c1,s42	;;6F
+  126 00:F51C: 0B             .DB c1*$0006+s42/$0008
   127                        	db_c_s	c1,s42	;;6G
+  127 00:F51D: 0B             .DB c1*$0006+s42/$0008
   128                        
   129                        lcd_d7	.equ lcd_d6+7
   130                        
   131                        	db_c_s	c4,s0	;;7A
+  131 00:F51E: 18             .DB c4*$0006+s0/$0008
   132                        	db_c_s	c3,s0	;;7B
+  132 00:F51F: 12             .DB c3*$0006+s0/$0008
   133                        	db_c_s	c3,s2	;;7C
+  133 00:F520: 12             .DB c3*$0006+s2/$0008
   134                        	db_c_s	c3,s3	;;7D
+  134 00:F521: 12             .DB c3*$0006+s3/$0008
   135                        	db_c_s	c4,s2	;;7E
+  135 00:F522: 18             .DB c4*$0006+s2/$0008
   136                        	db_c_s	c4,s1	;;7F
+  136 00:F523: 18             .DB c4*$0006+s1/$0008
   137                        	db_c_s	c3,s1	;;7G
+  137 00:F524: 12             .DB c3*$0006+s1/$0008
   138                        lcd_d8	.equ lcd_d7+7
   139                        
   140                        	db_c_s	c4,s5	;;8A
+  140 00:F525: 18             .DB c4*$0006+s5/$0008
   141                        	db_c_s	c4,s4	;;8B
+  141 00:F526: 18             .DB c4*$0006+s4/$0008
   142                        	db_c_s	c4,s3	;;8C
+  142 00:F527: 18             .DB c4*$0006+s3/$0008
   143                        	db_c_s	c3,s4	;;8D
+  143 00:F528: 12             .DB c3*$0006+s4/$0008
   144                        	db_c_s	c3,s6	;;8E
+  144 00:F529: 12             .DB c3*$0006+s6/$0008
   145                        	db_c_s	c4,s6	;;8F
+  145 00:F52A: 18             .DB c4*$0006+s6/$0008
   146                        	db_c_s	c3,s5	;;8G
+  146 00:F52B: 12             .DB c3*$0006+s5/$0008
   147                        lcd_d9	.equ lcd_d8+7
   148                        
   149                        	db_c_s	c4,s9	;;9A
+  149 00:F52C: 19             .DB c4*$0006+s9/$0008
   150                        	db_c_s	c4,s8	;;9B
+  150 00:F52D: 19             .DB c4*$0006+s8/$0008
   151                        	db_c_s	c3,s7	;;9C
+  151 00:F52E: 12             .DB c3*$0006+s7/$0008
   152                        	db_c_s	c2,s7	;;9D
+  152 00:F52F: 0C             .DB c2*$0006+s7/$0008
   153                        	db_c_s	c2,s8	;;9E
+  153 00:F530: 0D             .DB c2*$0006+s8/$0008
   154                        	db_c_s	c3,s9	;;9F
+  154 00:F531: 13             .DB c3*$0006+s9/$0008
   155                        	db_c_s	c3,s8	;;9G
+  155 00:F532: 13             .DB c3*$0006+s8/$0008
   156                        lcd_d10	.equ lcd_d9+7
   157                        
   158                        	db_c_s	c2,s9	;;10A
+  158 00:F533: 0D             .DB c2*$0006+s9/$0008
   159                        	db_c_s	c2,s9	;;10B
+  159 00:F534: 0D             .DB c2*$0006+s9/$0008
   160                        	db_c_s	c2,s9	;;10C
+  160 00:F535: 0D             .DB c2*$0006+s9/$0008
   161                        	db_c_s	c2,s9	;;10D
+  161 00:F536: 0D             .DB c2*$0006+s9/$0008
   162                        	db_c_s	c2,s9	;;10E
+  162 00:F537: 0D             .DB c2*$0006+s9/$0008
   163                        	db_c_s	c2,s9	;;10F
+  163 00:F538: 0D             .DB c2*$0006+s9/$0008
   164                        	db_c_s	c2,s9	;;10G
+  164 00:F539: 0D             .DB c2*$0006+s9/$0008
   165                        lcd_d11	.equ lcd_d10+7
   166                        
   167                        	db_c_s	c4,s11	;;11A
+  167 00:F53A: 19             .DB c4*$0006+s11/$0008
   168                        	db_c_s	c4,s10	;;11B
+  168 00:F53B: 19             .DB c4*$0006+s10/$0008
   169                        	db_c_s	c3,s10	;;11C
+  169 00:F53C: 13             .DB c3*$0006+s10/$0008
   170                        	db_c_s	c2,s10	;;11D
+  170 00:F53D: 0D             .DB c2*$0006+s10/$0008
   171                        	db_c_s	c2,s11	;;11E
+  171 00:F53E: 0D             .DB c2*$0006+s11/$0008
   172                        	db_c_s	c3,s12	;;11F
+  172 00:F53F: 13             .DB c3*$0006+s12/$0008
   173                        	db_c_s	c3,s11	;;11G
+  173 00:F540: 13             .DB c3*$0006+s11/$0008
   174                        lcd_d12	.equ lcd_d11+7
   175                        
   176                        	db_c_s	c4,s14	;;12A
+  176 00:F541: 19             .DB c4*$0006+s14/$0008
   177                        	db_c_s	c4,s13	;;12B
+  177 00:F542: 19             .DB c4*$0006+s13/$0008
   178                        	db_c_s	c3,s13	;;12C
+  178 00:F543: 13             .DB c3*$0006+s13/$0008
   179                        	db_c_s	c2,s13	;;12D
+  179 00:F544: 0D             .DB c2*$0006+s13/$0008
   180                        	db_c_s	c2,s14	;;12E
+  180 00:F545: 0D             .DB c2*$0006+s14/$0008
   181                        	db_c_s	c3,s15	;;12F
+  181 00:F546: 13             .DB c3*$0006+s15/$0008
   182                        	db_c_s	c3,s14	;;12G
+  182 00:F547: 13             .DB c3*$0006+s14/$0008
   183                        lcd_d13	.equ lcd_d12+7
   184                        
   185                        	db_c_s	c4,s41	;;13A
+  185 00:F548: 1D             .DB c4*$0006+s41/$0008
   186                        	db_c_s	c4,s40	;;13B
+  186 00:F549: 1D             .DB c4*$0006+s40/$0008
   187                        	db_c_s	c2,s15	;;13C
+  187 00:F54A: 0D             .DB c2*$0006+s15/$0008
   188                        	db_c_s	c2,s40	;;13D
+  188 00:F54B: 11             .DB c2*$0006+s40/$0008
   189                        	db_c_s	c2,s41	;;13E
+  189 00:F54C: 11             .DB c2*$0006+s41/$0008
   190                        	db_c_s	c3,s41	;;13F
+  190 00:F54D: 17             .DB c3*$0006+s41/$0008
   191                        	db_c_s	c3,s40	;;13G
+  191 00:F54E: 17             .DB c3*$0006+s40/$0008
   192                        
   193                        
   194                        
   195                        Lcd_dot:
   196                        lcd_col .equ Lcd_dot-lcd_table1
   197                        	db_c_s	c1,s8	;;COL
+  197 00:F54F: 07             .DB c1*$0006+s8/$0008
   198                        
   199                        	db_c_s	c2,s12	;;11I
+  199 00:F550: 0D             .DB c2*$0006+s12/$0008
   200                        	db_c_s	c4,s12	;;11H
+  200 00:F551: 19             .DB c4*$0006+s12/$0008
   201                        
   202                        	db_c_s	c4,s15	;;12H
+  202 00:F552: 19             .DB c4*$0006+s15/$0008
   203                        
   204                        	db_c_s	c3,s42	;;13I
+  204 00:F553: 17             .DB c3*$0006+s42/$0008
   205                        	db_c_s	c4,s42	;;13H
+  205 00:F554: 1D             .DB c4*$0006+s42/$0008
   206                        	db_c_s	c2,s42	;;13J
+  206 00:F555: 11             .DB c2*$0006+s42/$0008
   207                        
   208                        	db_c_s	c0,s1	;;ALM
+  208 00:F556: 00             .DB c0*$0006+s1/$0008
   209                        	db_c_s	c0,s0	;;SNZ
+  209 00:F557: 00             .DB c0*$0006+s0/$0008
   210                        	db_c_s	c1,s0	;;SIG
+  210 00:F558: 06             .DB c1*$0006+s0/$0008
   211                        
   212                        
   213                        
   214                        	db_c_s	c0,s41	;;24小时,D1
+  214 00:F559: 05             .DB c0*$0006+s41/$0008
   215                        	db_c_s	c0,s42	;;D2
+  215 00:F55A: 05             .DB c0*$0006+s42/$0008
   216                        
   217                        	db_c_s	c0,s40	;;PM
+  217 00:F55B: 05             .DB c0*$0006+s40/$0008
   218                        	db_c_s	c4,s7	;;正计时D3
+  218 00:F55C: 18             .DB c4*$0006+s7/$0008
   219                        
   220                        	lcd_11I				.EQU	lcd_col+1
   221                        	lcd_11H				.EQU	lcd_col+2
   222                        	lcd_12H				.EQU	lcd_col+3
   223                        	lcd_13I				.EQU	lcd_col+4
   224                        	lcd_13H				.EQU	lcd_col+5
   225                        	lcd_13J				.EQU	lcd_col+6
   226                        	lcd_Alm				.EQU	lcd_col+7
   227                        	lcd_Snz				.EQU	lcd_col+8
   228                        	lcd_Sig				.EQU	lcd_col+9
   229                        	lcd_D1				.EQU	lcd_col+10
   230                        	lcd_D2				.EQU	lcd_col+11
   231                        	lcd_D3				.EQU	lcd_col+12
   232                        	lcd_D4				.EQU	lcd_col+13
   233                        
   234                        	lcd_24				.EQU	lcd_D1
   235                        	lcd_PM				.EQU	lcd_D2
   236                        	lcd_Timer_Zheng		.EQU	lcd_D3
   237                        ;=============.EQU	lcd_=============================================
   238                        ;==========================================================
   239                        Lcd_bit:
   240                        
   241                        
   242                        	db_c_y	c0,s3	;;1A
+  242 00:F55D: 08             .DB $0001<<(s3-s3/$0008*$0008)
   243                        	db_c_y	c0,s2	;;1B
+  243 00:F55E: 04             .DB $0001<<(s2-s2/$0008*$0008)
   244                        	db_c_y	c0,s6	;;1C
+  244 00:F55F: 40             .DB $0001<<(s6-s6/$0008*$0008)
   245                        	db_c_y	c0,s8	;;1D
+  245 00:F560: 01             .DB $0001<<(s8-s8/$0008*$0008)
   246                        	db_c_y	c0,s7	;;1E
+  246 00:F561: 80             .DB $0001<<(s7-s7/$0008*$0008)
   247                        	db_c_y	c0,s4	;;1F
+  247 00:F562: 10             .DB $0001<<(s4-s4/$0008*$0008)
   248                        	db_c_y	c0,s5	;;1G
+  248 00:F563: 20             .DB $0001<<(s5-s5/$0008*$0008)
   249                        
   250                        
   251                        	db_c_y	c0,s9	;;2A
+  251 00:F564: 02             .DB $0001<<(s9-s9/$0008*$0008)
   252                        	db_c_y	c0,s10	;;2B
+  252 00:F565: 04             .DB $0001<<(s10-s10/$0008*$0008)
   253                        	db_c_y	c0,s13	;;2C
+  253 00:F566: 20             .DB $0001<<(s13-s13/$0008*$0008)
   254                        	db_c_y	c0,s15	;;2D
+  254 00:F567: 80             .DB $0001<<(s15-s15/$0008*$0008)
   255                        	db_c_y	c0,s14	;;2E
+  255 00:F568: 40             .DB $0001<<(s14-s14/$0008*$0008)
   256                        	db_c_y	c0,s11	;;2F
+  256 00:F569: 08             .DB $0001<<(s11-s11/$0008*$0008)
   257                        	db_c_y	c0,s12	;;2G
+  257 00:F56A: 10             .DB $0001<<(s12-s12/$0008*$0008)
   258                        
   259                        
   260                        
   261                        	db_c_y	c2,s0	;;3A
+  261 00:F56B: 01             .DB $0001<<(s0-s0/$0008*$0008)
   262                        	db_c_y	c1,s1	;;3B
+  262 00:F56C: 02             .DB $0001<<(s1-s1/$0008*$0008)
   263                        	db_c_y	c1,s2	;;3C
+  263 00:F56D: 04             .DB $0001<<(s2-s2/$0008*$0008)
   264                        	db_c_y	c1,s3	;;3D
+  264 00:F56E: 08             .DB $0001<<(s3-s3/$0008*$0008)
   265                        	db_c_y	c2,s3	;;3E
+  265 00:F56F: 08             .DB $0001<<(s3-s3/$0008*$0008)
   266                        	db_c_y	c2,s1	;;3F
+  266 00:F570: 02             .DB $0001<<(s1-s1/$0008*$0008)
   267                        	db_c_y	c2,s2	;;3G
+  267 00:F571: 04             .DB $0001<<(s2-s2/$0008*$0008)
   268                        
   269                        
   270                        
   271                        	db_c_y	c2,s4	;;4A
+  271 00:F572: 10             .DB $0001<<(s4-s4/$0008*$0008)
   272                        	db_c_y	c1,s4	;;4B
+  272 00:F573: 10             .DB $0001<<(s4-s4/$0008*$0008)
   273                        	db_c_y	c1,s6	;;4C
+  273 00:F574: 40             .DB $0001<<(s6-s6/$0008*$0008)
   274                        	db_c_y	c1,s7	;;4D
+  274 00:F575: 80             .DB $0001<<(s7-s7/$0008*$0008)
   275                        	db_c_y	c2,s6	;;4E
+  275 00:F576: 40             .DB $0001<<(s6-s6/$0008*$0008)
   276                        	db_c_y	c2,s5	;;4F
+  276 00:F577: 20             .DB $0001<<(s5-s5/$0008*$0008)
   277                        	db_c_y	c1,s5	;;4G
+  277 00:F578: 20             .DB $0001<<(s5-s5/$0008*$0008)
   278                        
   279                        
   280                        
   281                        	db_c_y	c1,s9	;;5A
+  281 00:F579: 02             .DB $0001<<(s9-s9/$0008*$0008)
   282                        	db_c_y	c1,s10	;;5B
+  282 00:F57A: 04             .DB $0001<<(s10-s10/$0008*$0008)
   283                        	db_c_y	c1,s13	;;5C
+  283 00:F57B: 20             .DB $0001<<(s13-s13/$0008*$0008)
   284                        	db_c_y	c1,s15	;;5D
+  284 00:F57C: 80             .DB $0001<<(s15-s15/$0008*$0008)
   285                        	db_c_y	c1,s14	;;5E
+  285 00:F57D: 40             .DB $0001<<(s14-s14/$0008*$0008)
   286                        	db_c_y	c1,s11	;;5F
+  286 00:F57E: 08             .DB $0001<<(s11-s11/$0008*$0008)
   287                        	db_c_y	c1,s12	;;5G
+  287 00:F57F: 10             .DB $0001<<(s12-s12/$0008*$0008)
   288                        
   289                        
   290                        	db_c_y	c1,s42	;;6A
+  290 00:F580: 04             .DB $0001<<(s42-s42/$0008*$0008)
   291                        	db_c_y	c1,s41	;;6B
+  291 00:F581: 02             .DB $0001<<(s41-s41/$0008*$0008)
   292                        	db_c_y	c1,s40	;;6C
+  292 00:F582: 01             .DB $0001<<(s40-s40/$0008*$0008)
   293                        	db_c_y	c1,s42	;;6D
+  293 00:F583: 04             .DB $0001<<(s42-s42/$0008*$0008)
   294                        	db_c_y	c1,s42	;;6E
+  294 00:F584: 04             .DB $0001<<(s42-s42/$0008*$0008)
   295                        	db_c_y	c1,s42	;;6F
+  295 00:F585: 04             .DB $0001<<(s42-s42/$0008*$0008)
   296                        	db_c_y	c1,s42	;;6G
+  296 00:F586: 04             .DB $0001<<(s42-s42/$0008*$0008)
   297                        
   298                        
   299                        
   300                        	db_c_y	c4,s0	;;7A
+  300 00:F587: 01             .DB $0001<<(s0-s0/$0008*$0008)
   301                        	db_c_y	c3,s0	;;7B
+  301 00:F588: 01             .DB $0001<<(s0-s0/$0008*$0008)
   302                        	db_c_y	c3,s2	;;7C
+  302 00:F589: 04             .DB $0001<<(s2-s2/$0008*$0008)
   303                        	db_c_y	c3,s3	;;7D
+  303 00:F58A: 08             .DB $0001<<(s3-s3/$0008*$0008)
   304                        	db_c_y	c4,s2	;;7E
+  304 00:F58B: 04             .DB $0001<<(s2-s2/$0008*$0008)
   305                        	db_c_y	c4,s1	;;7F
+  305 00:F58C: 02             .DB $0001<<(s1-s1/$0008*$0008)
   306                        	db_c_y	c3,s1	;;7G
+  306 00:F58D: 02             .DB $0001<<(s1-s1/$0008*$0008)
   307                        
   308                        
   309                        	db_c_y	c4,s5	;;8A
+  309 00:F58E: 20             .DB $0001<<(s5-s5/$0008*$0008)
   310                        	db_c_y	c4,s4	;;8B
+  310 00:F58F: 10             .DB $0001<<(s4-s4/$0008*$0008)
   311                        	db_c_y	c4,s3	;;8C
+  311 00:F590: 08             .DB $0001<<(s3-s3/$0008*$0008)
   312                        	db_c_y	c3,s4	;;8D
+  312 00:F591: 10             .DB $0001<<(s4-s4/$0008*$0008)
   313                        	db_c_y	c3,s6	;;8E
+  313 00:F592: 40             .DB $0001<<(s6-s6/$0008*$0008)
   314                        	db_c_y	c4,s6	;;8F
+  314 00:F593: 40             .DB $0001<<(s6-s6/$0008*$0008)
   315                        	db_c_y	c3,s5	;;8G
+  315 00:F594: 20             .DB $0001<<(s5-s5/$0008*$0008)
   316                        
   317                        
   318                        	db_c_y	c4,s9	;;9A
+  318 00:F595: 02             .DB $0001<<(s9-s9/$0008*$0008)
   319                        	db_c_y	c4,s8	;;9B
+  319 00:F596: 01             .DB $0001<<(s8-s8/$0008*$0008)
   320                        	db_c_y	c3,s7	;;9C
+  320 00:F597: 80             .DB $0001<<(s7-s7/$0008*$0008)
   321                        	db_c_y	c2,s7	;;9D
+  321 00:F598: 80             .DB $0001<<(s7-s7/$0008*$0008)
   322                        	db_c_y	c2,s8	;;9E
+  322 00:F599: 01             .DB $0001<<(s8-s8/$0008*$0008)
   323                        	db_c_y	c3,s9	;;9F
+  323 00:F59A: 02             .DB $0001<<(s9-s9/$0008*$0008)
   324                        	db_c_y	c3,s8	;;9G
+  324 00:F59B: 01             .DB $0001<<(s8-s8/$0008*$0008)
   325                        
   326                        
   327                        	db_c_y	c2,s9	;;10A
+  327 00:F59C: 02             .DB $0001<<(s9-s9/$0008*$0008)
   328                        	db_c_y	c2,s9	;;10B
+  328 00:F59D: 02             .DB $0001<<(s9-s9/$0008*$0008)
   329                        	db_c_y	c2,s9	;;10C
+  329 00:F59E: 02             .DB $0001<<(s9-s9/$0008*$0008)
   330                        	db_c_y	c2,s9	;;10D
+  330 00:F59F: 02             .DB $0001<<(s9-s9/$0008*$0008)
   331                        	db_c_y	c2,s9	;;10E
+  331 00:F5A0: 02             .DB $0001<<(s9-s9/$0008*$0008)
   332                        	db_c_y	c2,s9	;;10F
+  332 00:F5A1: 02             .DB $0001<<(s9-s9/$0008*$0008)
   333                        	db_c_y	c2,s9	;;10G
+  333 00:F5A2: 02             .DB $0001<<(s9-s9/$0008*$0008)
   334                        
   335                        
   336                        	db_c_y	c4,s11	;;11A
+  336 00:F5A3: 08             .DB $0001<<(s11-s11/$0008*$0008)
   337                        	db_c_y	c4,s10	;;11B
+  337 00:F5A4: 04             .DB $0001<<(s10-s10/$0008*$0008)
   338                        	db_c_y	c3,s10	;;11C
+  338 00:F5A5: 04             .DB $0001<<(s10-s10/$0008*$0008)
   339                        	db_c_y	c2,s10	;;11D
+  339 00:F5A6: 04             .DB $0001<<(s10-s10/$0008*$0008)
   340                        	db_c_y	c2,s11	;;11E
+  340 00:F5A7: 08             .DB $0001<<(s11-s11/$0008*$0008)
   341                        	db_c_y	c3,s12	;;11F
+  341 00:F5A8: 10             .DB $0001<<(s12-s12/$0008*$0008)
   342                        	db_c_y	c3,s11	;;11G
+  342 00:F5A9: 08             .DB $0001<<(s11-s11/$0008*$0008)
   343                        
   344                        
   345                        	db_c_y	c4,s14	;;12A
+  345 00:F5AA: 40             .DB $0001<<(s14-s14/$0008*$0008)
   346                        	db_c_y	c4,s13	;;12B
+  346 00:F5AB: 20             .DB $0001<<(s13-s13/$0008*$0008)
   347                        	db_c_y	c3,s13	;;12C
+  347 00:F5AC: 20             .DB $0001<<(s13-s13/$0008*$0008)
   348                        	db_c_y	c2,s13	;;12D
+  348 00:F5AD: 20             .DB $0001<<(s13-s13/$0008*$0008)
   349                        	db_c_y	c2,s14	;;12E
+  349 00:F5AE: 40             .DB $0001<<(s14-s14/$0008*$0008)
   350                        	db_c_y	c3,s15	;;12F
+  350 00:F5AF: 80             .DB $0001<<(s15-s15/$0008*$0008)
   351                        	db_c_y	c3,s14	;;12G
+  351 00:F5B0: 40             .DB $0001<<(s14-s14/$0008*$0008)
   352                        
   353                        
   354                        	db_c_y	c4,s41	;;13A
+  354 00:F5B1: 02             .DB $0001<<(s41-s41/$0008*$0008)
   355                        	db_c_y	c4,s40	;;13B
+  355 00:F5B2: 01             .DB $0001<<(s40-s40/$0008*$0008)
   356                        	db_c_y	c2,s15	;;13C
+  356 00:F5B3: 80             .DB $0001<<(s15-s15/$0008*$0008)
   357                        	db_c_y	c2,s40	;;13D
+  357 00:F5B4: 01             .DB $0001<<(s40-s40/$0008*$0008)
   358                        	db_c_y	c2,s41	;;13E
+  358 00:F5B5: 02             .DB $0001<<(s41-s41/$0008*$0008)
   359                        	db_c_y	c3,s41	;;13F
+  359 00:F5B6: 02             .DB $0001<<(s41-s41/$0008*$0008)
   360                        	db_c_y	c3,s40	;;13G
+  360 00:F5B7: 01             .DB $0001<<(s40-s40/$0008*$0008)
   361                        
   362                        
   363                        
   364                        	db_c_y	c1,s8	;;COL
+  364 00:F5B8: 01             .DB $0001<<(s8-s8/$0008*$0008)
   365                        
   366                        	db_c_y	c2,s12	;;11I
+  366 00:F5B9: 10             .DB $0001<<(s12-s12/$0008*$0008)
   367                        	db_c_y	c4,s12	;;11H
+  367 00:F5BA: 10             .DB $0001<<(s12-s12/$0008*$0008)
   368                        
   369                        	db_c_y	c4,s15	;;12H
+  369 00:F5BB: 80             .DB $0001<<(s15-s15/$0008*$0008)
   370                        
   371                        	db_c_y	c3,s42	;;13I
+  371 00:F5BC: 04             .DB $0001<<(s42-s42/$0008*$0008)
   372                        	db_c_y	c4,s42	;;13H
+  372 00:F5BD: 04             .DB $0001<<(s42-s42/$0008*$0008)
   373                        	db_c_y	c2,s42	;;13J
+  373 00:F5BE: 04             .DB $0001<<(s42-s42/$0008*$0008)
   374                        
   375                        	db_c_y	c0,s1	;;ALM
+  375 00:F5BF: 02             .DB $0001<<(s1-s1/$0008*$0008)
   376                        	db_c_y	c0,s0	;;SNZ
+  376 00:F5C0: 01             .DB $0001<<(s0-s0/$0008*$0008)
   377                        	db_c_y	c1,s0	;;SIG
+  377 00:F5C1: 01             .DB $0001<<(s0-s0/$0008*$0008)
   378                        
   379                        
   380                        
   381                        	db_c_y	c0,s41	;;24小时,D1
+  381 00:F5C2: 02             .DB $0001<<(s41-s41/$0008*$0008)
   382                        	db_c_y	c0,s42	;;D2
+  382 00:F5C3: 04             .DB $0001<<(s42-s42/$0008*$0008)
   383                        
   384                        	db_c_y	c0,s40	;;PM
+  384 00:F5C4: 01             .DB $0001<<(s40-s40/$0008*$0008)
   385                        	db_c_y	c4,s7	;;正计时D3
+  169 00:F5C5: 80             .DB $0001<<(s7-s7/$0008*$0008)
   385                        
   170                        .INCLUDE	Display\Display.asm
     1                        L_Display_Set_Mode_Prog_TO:
     2 00:F5C6: 16 4B F6      	JMP		L_Display_Set_Mode_Prog
     3                        L_Display_Normal_Prog:
     4 00:F5C9: 15 E4 F8      	JSR		L_Dis_col_Prog
     5 00:F5CC: 3B A5 F7      	BBS3	Sys_Flag_A,L_Display_Set_Mode_Prog_TO
     6 00:F5CF: 73 D3         	LDA		R_Close_All_Dis
     7 00:F5D1: 12 3A         	BNE		L_Display_Alarm_Normal_Prog
     8 00:F5D3: 06            	CLD
     9 00:F5D4: 73 CE         	LDA		R_Mode
    10 00:F5D6: 04            	CLC
    11 00:F5D7: 18            	ROL
    12 00:F5D8: 1B            	TAX
    13 00:F5D9: 63 E3 F5      	LDA		Table_Dis_2+1,X
    14 00:F5DC: 0A            	PHA
    15 00:F5DD: 63 E2 F5      	LDA		Table_Dis_2,X
    16 00:F5E0: 0A            	PHA
    17 00:F5E1: 09            	RTS
    18                        Table_Dis_2:
    19 00:F5E2: EB F5         	DW		L_Display_Time_Normal_Prog-1
    20 00:F5E4: 0C F6         	DW		L_Display_Alarm_Normal_Prog-1
    21 00:F5E6: 0D F6         	DW		L_Display_Postive_Timer_Normal_Prog-1
    22 00:F5E8: 39 F6         	DW		L_Display_Another_Time_Normal_Prog-1
    23 00:F5EA: 24 F6         	DW		L_Display_Destive_Timer_Normal_Prog-1
    24                        
    25                        
    26                        L_Display_Time_Normal_Prog:
    27 00:F5EC: 15 53 F7      	JSR		L_Display_Time_Sec_Prog
    28 00:F5EF: 73 B3         	LDA		R_Time_Sec
    29 00:F5F1: 12 1A         	BNE		L_Display_Alarm_Normal_Prog_OUT
    30 00:F5F3: 15 58 F7      	JSR		L_Display_Time_Min_Prog
    31 00:F5F6: 73 B4         	LDA		R_Time_Min
    32 00:F5F8: 12 13         	BNE		L_Display_Alarm_Normal_Prog_OUT
    33 00:F5FA: 15 5D F7      	JSR		L_Display_Time_Hr_Prog
    34 00:F5FD: 73 B5         	LDA		R_Time_Hr
    35 00:F5FF: 12 0C         	BNE		L_Display_Alarm_Normal_Prog_OUT
    36 00:F601: 15 62 F7      	JSR		L_Display_Time_Day_Prog
    37 00:F604: 15 67 F7      	JSR		L_Display_Time_Month_Prog
    38 00:F607: 15 DB F9      	JSR		L_Clr_Time_Week_Prog
    39 00:F60A: 16 76 F7      	JMP		L_Display_Time_Week_Prog
    40                        
    41                        L_Display_Alarm_Normal_Prog:
    42                        L_Display_Alarm_Normal_Prog_OUT:
    43 00:F60D: 09            	RTS
    44                        L_Display_Postive_Timer_Normal_Prog:
    45 00:F60E: 30 A8 FC      	BBR0	Sys_Flag_D,L_Display_Alarm_Normal_Prog
    46 00:F611: 15 81 F8      	JSR		L_Display_Positive_Timer_Ms_Prog
    47 00:F614: 15 72 F8      	JSR		L_Display_Positive_Timer_Sec_Prog
    48 00:F617: 73 BD         	LDA		R_Timer_Sec
    49 00:F619: 12 F2         	BNE		L_Display_Alarm_Normal_Prog_OUT
    50 00:F61B: 15 77 F8      	JSR		L_Display_Positive_Timer_Min_Prog
    51 00:F61E: 73 BF         	LDA		R_Timer_Hr
    52 00:F620: 12 EB         	BNE		L_Display_Alarm_Normal_Prog_OUT
    53 00:F622: 16 7C F8      	JMP		L_Display_Positive_Timer_Hr_Prog
    54                        L_Display_Destive_Timer_Normal_Prog:
    55 00:F625: 15 9F F8      	JSR		L_Display_Destive_Timer_Sec_Prog
    56 00:F628: 73 C0         	LDA		R_Timer_Sec_Countdown
    57 00:F62A: 56 3B         	CMP		#59
    58 00:F62C: 12 DF         	BNE		L_Display_Alarm_Normal_Prog_OUT
    59 00:F62E: 15 A4 F8      	JSR		L_Display_Destive_Timer_Min_Prog
    60 00:F631: 73 C1         	LDA		R_Timer_Min_Countdown
    61 00:F633: 56 3B         	CMP		#59
    62 00:F635: 12 D6         	BNE		L_Display_Alarm_Normal_Prog_OUT
    63 00:F637: 16 A9 F8      	JMP		L_Display_Destive_Timer_Hr_Prog
    64                        L_Display_Another_Time_Normal_Prog:
    65 00:F63A: 15 53 F7      	JSR		L_Display_Time_Sec_Prog
    66 00:F63D: 73 B3         	LDA		R_Time_Sec
    67 00:F63F: 12 CC         	BNE		L_Display_Alarm_Normal_Prog_OUT
    68 00:F641: 15 39 F7      	JSR		L_Display_Another_Time_Min_Prog
    69 00:F644: 73 BA         	LDA		R_Time_Min_Another
    70 00:F646: 12 C5         	BNE		L_Display_Alarm_Normal_Prog_OUT
    71 00:F648: 16 3E F7      	JMP		L_Display_Another_Time_Hr_Prog
    72                        
    73                        
    74                        
    75                        
    76                        
    77                        
    78                        
    79                        
    80                        L_Display_Set_Mode_Prog:
    81 00:F64B: 15 E4 F8      	JSR		L_Dis_col_Prog
    82 00:F64E: 06            	CLD
    83 00:F64F: 73 CE         	LDA		R_Mode
    84 00:F651: 04            	CLC
    85 00:F652: 18            	ROL
    86 00:F653: 1B            	TAX
    87 00:F654: 63 5E F6      	LDA		Table_Dis_3+1,X
    88 00:F657: 0A            	PHA
    89 00:F658: 63 5D F6      	LDA		Table_Dis_3,X
    90 00:F65B: 0A            	PHA
    91 00:F65C: 09            	RTS
    92                        
    93                        Table_Dis_3:
    94 00:F65D: 6C F6         	DW		L_Display_Time_Set_Mode_Prog-1
    95 00:F65F: 87 F6         	DW		L_Display_Alarm_Set_Mode_Prog-1
    96 00:F661: 9E F6         	DW		L_Display_Postive_Timer_Set_Mode_Prog-1
    97 00:F663: B5 F6         	DW		L_Display_Another_Time_Set_Mode_Prog-1
    98 00:F665: 9F F6         	DW		L_Display_Destive_Timer_Set_Mode_Prog-1
    99                        
   100                        
   101                        
   102                        
   103                        
   104                        L_Display_Time_Year_Prog_TO
   105 00:F667: 15 21 F9      	JSR		L_Clr_col_Prog
   106 00:F66A: 16 6C F7      	JMP		L_Display_Time_Year_Prog
   107                        L_Display_Time_Set_Mode_Prog:
   108 00:F66D: 06            	CLD
   109 00:F66E: 73 CF         	LDA		R_Mode_Set
   110 00:F670: 04            	CLC
   111 00:F671: 18            	ROL
   112 00:F672: 1B            	TAX
   113 00:F673: 63 7D F6      	LDA		Table_Dis_Set_mode_1+1,X
   114 00:F676: 0A            	PHA
   115 00:F677: 63 7C F6      	LDA		Table_Dis_Set_mode_1,X
   116 00:F67A: 0A            	PHA
   117 00:F67B: 09            	RTS
   118                        
   119                        Table_Dis_Set_mode_1:
   120 00:F67C: 52 F7         	DW		L_Display_Time_Sec_Prog-1
   121 00:F67E: 5C F7         	DW		L_Display_Time_Hr_Prog-1
   122 00:F680: 57 F7         	DW		L_Display_Time_Min_Prog-1
   123 00:F682: 66 F6         	DW		L_Display_Time_Year_Prog_TO-1
   124 00:F684: 66 F7         	DW		L_Display_Time_Month_Prog-1
   125 00:F686: 61 F7         	DW		L_Display_Time_Day_Prog-1
   126                        
   127                        
   128                        
   129                        
   130                        
   131                        
   132                        
   133                        
   134                        L_Display_Alarm_Set_Mode_Prog:
   135 00:F688: 06            	CLD
   136 00:F689: 73 CF         	LDA		R_Mode_Set
   137 00:F68B: 04            	CLC
   138 00:F68C: 18            	ROL
   139 00:F68D: 1B            	TAX
   140 00:F68E: 63 98 F6      	LDA		Table_Dis_Set_mode_2+1,X
   141 00:F691: 0A            	PHA
   142 00:F692: 63 97 F6      	LDA		Table_Dis_Set_mode_2,X
   143 00:F695: 0A            	PHA
   144 00:F696: 09            	RTS
   145                        Table_Dis_Set_mode_2:
   146 00:F697: 2B F8         	DW		L_Display_Alarm_Clock_Hr_Prog-1
   147 00:F699: 26 F8         	DW		L_Display_Alarm_Clock_Min_Prog-1
   148 00:F69B: 37 F8         	DW		L_Display_Alarm_Clock_Month_Prog-1
   149 00:F69D: 30 F8         	DW		L_Display_Alarm_Clock_Day_Prog-1
   150                        
   151                        
   152                        
   153                        L_Display_Postive_Timer_Set_Mode_Prog:
   154 00:F69F: 09            	RTS
   155                        
   156                        L_Display_Destive_Timer_Set_Mode_Prog:
   157 00:F6A0: 15 9F F8      	JSR		L_Display_Destive_Timer_Sec_Prog
   158 00:F6A3: 06            	CLD
   159 00:F6A4: 73 CF         	LDA		R_Mode_Set
   160 00:F6A6: 04            	CLC
   161 00:F6A7: 18            	ROL
   162 00:F6A8: 1B            	TAX
   163 00:F6A9: 63 B3 F6      	LDA		Table_Dis_Set_mode_3+1,X
   164 00:F6AC: 0A            	PHA
   165 00:F6AD: 63 B2 F6      	LDA		Table_Dis_Set_mode_3,X
   166 00:F6B0: 0A            	PHA
   167 00:F6B1: 09            	RTS
   168                        Table_Dis_Set_mode_3:
   169 00:F6B2: A8 F8         	DW		L_Display_Destive_Timer_Hr_Prog-1
   170 00:F6B4: A3 F8         	DW		L_Display_Destive_Timer_Min_Prog-1
   171                        
   172                        
   173                        
   174                        
   175                        L_Display_Another_Time_Set_Mode_Prog:
   176 00:F6B6: 15 53 F7      	JSR		L_Display_Time_Sec_Prog
   177 00:F6B9: 06            	CLD
   178 00:F6BA: 73 CF         	LDA		R_Mode_Set
   179 00:F6BC: 04            	CLC
   180 00:F6BD: 18            	ROL
   181 00:F6BE: 1B            	TAX
   182 00:F6BF: 63 C9 F6      	LDA		Table_Dis_Set_mode_4+1,X
   183 00:F6C2: 0A            	PHA
   184 00:F6C3: 63 C8 F6      	LDA		Table_Dis_Set_mode_4,X
   185 00:F6C6: 0A            	PHA
   186 00:F6C7: 09            	RTS
   187                        
   188                        Table_Dis_Set_mode_4:
   189 00:F6C8: 3D F7         	DW		L_Display_Another_Time_Hr_Prog-1
   190 00:F6CA: 38 F7         	DW		L_Display_Another_Time_Min_Prog-1
   191                        
   192                        
   193                        
   194                        
   195                        
   196                        
   197                        
   198                        
   199                        
   200                        
   201                        
   202                        
   203                        
   204                        
   205                        
   206                        
   207                        L_Display_Prog:
   208 00:F6CC: 15 E4 F8      	JSR		L_Dis_col_Prog
   209 00:F6CF: 06            	CLD
   210 00:F6D0: 73 CE         	LDA		R_Mode
   211 00:F6D2: 04            	CLC
   212 00:F6D3: 18            	ROL
   213 00:F6D4: 1B            	TAX
   214 00:F6D5: 63 DF F6      	LDA		Table_Dis_1+1,X
   215 00:F6D8: 0A            	PHA
   216 00:F6D9: 63 DE F6      	LDA		Table_Dis_1,X
   217 00:F6DC: 0A            	PHA
   218                        L_Display_Prog_1:
   219 00:F6DD: 09            	RTS
   220                        Table_Dis_1:
   221 00:F6DE: E7 F6         	DW		L_Display_Time_Prog-1
   222 00:F6E0: FC F6         	DW		L_Display_Alarm_Prog-1
   223 00:F6E2: 0E F7         	DW		L_Display_Postive_Timer_Prog-1
   224 00:F6E4: 2C F7         	DW		L_Display_Another_Time_Prog-1
   225 00:F6E6: 20 F7         	DW		L_Display_Destive_Timer_Prog-1
   226                        L_Display_Time_Prog:
   227 00:F6E8: 15 53 F7      	JSR		L_Display_Time_Sec_Prog
   228 00:F6EB: 15 58 F7      	JSR		L_Display_Time_Min_Prog
   229 00:F6EE: 15 5D F7      	JSR		L_Display_Time_Hr_Prog
   230 00:F6F1: 15 1D F9      	JSR		L_Dis_lcd_D4_Prog
   231 00:F6F4: 15 62 F7      	JSR		L_Display_Time_Day_Prog
   232 00:F6F7: 15 67 F7      	JSR		L_Display_Time_Month_Prog
   233 00:F6FA: 16 76 F7      	JMP		L_Display_Time_Week_Prog
   234                        
   235                        L_Display_Alarm_Prog:
   236 00:F6FD: 15 27 F8      	JSR		L_Display_Alarm_Clock_Min_Prog
   237 00:F700: 15 2C F8      	JSR		L_Display_Alarm_Clock_Hr_Prog
   238 00:F703: 15 1D F9      	JSR		L_Dis_lcd_D4_Prog
   239 00:F706: 15 31 F8      	JSR		L_Display_Alarm_Clock_Day_Prog
   240 00:F709: 15 38 F8      	JSR		L_Display_Alarm_Clock_Month_Prog
   241 00:F70C: 16 48 F8      	JMP		L_Display_Alarm_Clock_AL_Symbol_Prog
   242                        L_Display_Postive_Timer_Prog:
   243 00:F70F: 3D A8 CB      	BBS5	Sys_Flag_D,L_Display_Prog_1
   244 00:F712: 15 72 F8      	JSR		L_Display_Positive_Timer_Sec_Prog
   245 00:F715: 15 77 F8      	JSR		L_Display_Positive_Timer_Min_Prog
   246 00:F718: 15 7C F8      	JSR		L_Display_Positive_Timer_Hr_Prog
   247 00:F71B: 15 81 F8      	JSR		L_Display_Positive_Timer_Ms_Prog
   248 00:F71E: 16 86 F8      	JMP		L_Display_Positive_Timer_ST_Prog
   249                        
   250                        L_Display_Destive_Timer_Prog:
   251 00:F721: 15 9F F8      	JSR		L_Display_Destive_Timer_Sec_Prog
   252 00:F724: 15 A4 F8      	JSR		L_Display_Destive_Timer_Min_Prog
   253 00:F727: 15 A9 F8      	JSR		L_Display_Destive_Timer_Hr_Prog
   254 00:F72A: 16 AE F8      	JMP		L_Display_Destive_Timer_TR_Symbol_Prog
   255                        L_Display_Another_Time_Prog:
   256 00:F72D: 15 53 F7      	JSR		L_Display_Time_Sec_Prog
   257 00:F730: 15 39 F7      	JSR		L_Display_Another_Time_Min_Prog
   258 00:F733: 15 3E F7      	JSR		L_Display_Another_Time_Hr_Prog
   259 00:F736: 16 43 F7      	JMP		L_Display_Another_Time_DT_Symbol_Prog
   259                        
   171                        .INCLUDE	Display\Display_Time.asm
     1                        L_Display_Another_Time_Min_Prog:
     2 00:F739: 73 BA         	LDA		R_Time_Min_Another
     3 00:F73B: 16 81 F9      	JMP		L_Display_lcd_Prog_Normal_Min
     4                        L_Display_Another_Time_Hr_Prog:
     5 00:F73E: 73 BB         	LDA		R_Time_Hr_Another
     6 00:F740: 16 90 F9      	JMP		L_Display_lcd_Prog_Normal_Hr
     7                        L_Display_Another_Time_DT_Symbol_Prog:
     8 00:F743: 53 00         	LDA		#0
     9 00:F745: 15 CC F9      	JSR		L_Display_lcd_d13_Prog_Normal
    10 00:F748: 53 0F         	LDA		#15
    11 00:F74A: 15 D6 F9      	JSR		L_Display_lcd_d12_Prog_Normal
    12 00:F74D: 15 FD F8      	JSR		L_Dis_lcd_13H_Prog
    13 00:F750: 16 F5 F8      	JMP		L_Dis_lcd_12H_Prog
    14                        ;===============================================
    15                        
    16                        L_Display_Time_Sec_Prog:
    17 00:F753: 73 B3         	LDA		R_Time_Sec
    18 00:F755: 16 6D F9      	JMP		L_Display_lcd_Prog_Normal_Sec
    19                        ;======================================
    20                        L_Display_Time_Min_Prog:
    21 00:F758: 73 B4         	LDA		R_Time_Min
    22 00:F75A: 16 81 F9      	JMP		L_Display_lcd_Prog_Normal_Min
    23                        ;=====================================
    24                        L_Display_Time_Hr_Prog:
    25 00:F75D: 73 B5         	LDA		R_Time_Hr
    26 00:F75F: 16 90 F9      	JMP		L_Display_lcd_Prog_Normal_Hr
    27                        ;=====================================
    28                        L_Display_Time_Day_Prog:
    29 00:F762: 73 B6         	LDA		R_Time_Day
    30 00:F764: 16 AE F9      	JMP		L_Display_lcd_Prog_Normal_Day
    31                        ;=====================================
    32                        L_Display_Time_Month_Prog:
    33 00:F767: 73 B7         	LDA		R_Time_Month
    34 00:F769: 16 BD F9      	JMP		L_Display_lcd_Prog_Normal_Month
    35                        ;========================================
    36                        L_Display_Time_Year_Prog:
    37 00:F76C: 53 14         	LDA		#20
    38 00:F76E: 15 5E F9      	JSR		L_Display_lcd_Prog_Normal_Timer
    39 00:F771: 73 B8         	LDA		R_Time_Year
    40 00:F773: 16 81 F9      	JMP		L_Display_lcd_Prog_Normal_Min
    41                        
    42                        ;============================================
    43                        L_Display_Time_Week_Prog:
    44 00:F776: 06            	CLD
    45 00:F777: 73 B9             LDA     R_Time_Week
    46 00:F779: 04                CLC
    47 00:F77A: 18                ROL
    48 00:F77B: 1B                TAX
    49 00:F77C: 63 86 F7          LDA     Table_Dis_Week+1,X
    50 00:F77F: 0A                PHA
    51 00:F780: 63 85 F7          LDA     Table_Dis_Week,X
    52 00:F783: 0A                PHA
    53 00:F784: 09                RTS
    54                        Table_Dis_Week:
    55 00:F785: 13 F8         	DW		L_Display_Time_Sunday_Prog-1
    56 00:F787: 92 F7         	DW		L_Display_Time_Monday_Prog-1
    57 00:F789: AB F7         	DW		L_Display_Time_Tuesday_Prog-1
    58 00:F78B: BE F7         	DW		L_Display_Time_WednesDay_Prog-1
    59 00:F78D: DA F7         	DW		L_Display_Time_Thursday_Prog-1
    60 00:F78F: ED F7         	DW		L_Display_Time_Friday_Prog-1
    61 00:F791: 00 F8         	DW		L_Display_Time_Saturday_Prog-1
    62                        
    63                        
    64                        
    65                        L_Display_Time_Monday_Prog:
    66 00:F793: 53 0E         	LDA		#14
    67 00:F795: 15 D1 F9      	JSR		L_Display_lcd_d11_Prog_Normal
    68 00:F798: 53 00         	LDA		#0
    69 00:F79A: 15 D6 F9      	JSR		L_Display_lcd_d12_Prog_Normal
    70 00:F79D: 53 0E         	LDA		#14
    71 00:F79F: 15 CC F9      	JSR		L_Display_lcd_d13_Prog_Normal
    72 00:F7A2: 15 01 F9      	JSR		L_Dis_lcd_13J_Prog
    73 00:F7A5: 15 FD F8      	JSR		L_Dis_lcd_13H_Prog
    74 00:F7A8: 15 F1 F8      	JSR		L_Dis_lcd_11H_Prog
    75 00:F7AB: 09            	RTS
    76                        L_Display_Time_Tuesday_Prog:
    77 00:F7AC: 53 11         	LDA		#17
    78 00:F7AE: 15 D1 F9      	JSR		L_Display_lcd_d11_Prog_Normal
    79 00:F7B1: 53 10         	LDA		#16
    80 00:F7B3: 15 D6 F9      	JSR		L_Display_lcd_d12_Prog_Normal
    81 00:F7B6: 53 0F         	LDA		#15
    82 00:F7B8: 15 CC F9      	JSR		L_Display_lcd_d13_Prog_Normal
    83 00:F7BB: 15 FD F8      	JSR		L_Dis_lcd_13H_Prog
    84 00:F7BE: 09            	RTS
    85                        L_Display_Time_WednesDay_Prog:
    86 00:F7BF: 53 00         	LDA		#0
    87 00:F7C1: 15 D1 F9      	JSR		L_Display_lcd_d11_Prog_Normal
    88 00:F7C4: 53 11         	LDA		#17
    89 00:F7C6: 15 D6 F9      	JSR		L_Display_lcd_d12_Prog_Normal
    90 00:F7C9: 53 10         	LDA		#16
    91 00:F7CB: 15 CC F9      	JSR		L_Display_lcd_d13_Prog_Normal
    92 00:F7CE: 15 F9 F8      	JSR		L_Dis_lcd_13I_Prog
    93 00:F7D1: 15 01 F9      	JSR		L_Dis_lcd_13J_Prog
    94 00:F7D4: 15 F1 F8      	JSR		L_Dis_lcd_11H_Prog
    95 00:F7D7: 15 ED F8      	JSR		L_Dis_lcd_11I_Prog
    96 00:F7DA: 09            	RTS
    97                        L_Display_Time_Thursday_Prog:
    98 00:F7DB: 53 10         	LDA		#16
    99 00:F7DD: 15 D1 F9      	JSR		L_Display_lcd_d11_Prog_Normal
   100 00:F7E0: 53 0C         	LDA		#12
   101 00:F7E2: 15 D6 F9      	JSR		L_Display_lcd_d12_Prog_Normal
   102 00:F7E5: 53 0F         	LDA		#15
   103 00:F7E7: 15 CC F9      	JSR		L_Display_lcd_d13_Prog_Normal
   104 00:F7EA: 15 FD F8      	JSR		L_Dis_lcd_13H_Prog
   105 00:F7ED: 09            	RTS
   106                        L_Display_Time_Friday_Prog:
   107 00:F7EE: 53 01         	LDA		#1
   108 00:F7F0: 15 D1 F9      	JSR		L_Display_lcd_d11_Prog_Normal
   109 00:F7F3: 53 12         	LDA		#18
   110 00:F7F5: 15 D6 F9      	JSR		L_Display_lcd_d12_Prog_Normal
   111 00:F7F8: 53 13         	LDA		#19
   112 00:F7FA: 15 CC F9      	JSR		L_Display_lcd_d13_Prog_Normal
   113 00:F7FD: 15 F5 F8      	JSR		L_Dis_lcd_12H_Prog
   114 00:F800: 09            	RTS
   115                        L_Display_Time_Saturday_Prog:
   116 00:F801: 53 0F         	LDA		#15
   117 00:F803: 15 D1 F9      	JSR		L_Display_lcd_d11_Prog_Normal
   118 00:F806: 53 12         	LDA		#18
   119 00:F808: 15 D6 F9      	JSR		L_Display_lcd_d12_Prog_Normal
   120 00:F80B: 53 05         	LDA		#5
   121 00:F80D: 15 CC F9      	JSR		L_Display_lcd_d13_Prog_Normal
   122 00:F810: 15 F1 F8      	JSR		L_Dis_lcd_11H_Prog
   123 00:F813: 09            	RTS
   124                        L_Display_Time_Sunday_Prog:
   125 00:F814: 53 0E         	LDA		#14
   126 00:F816: 15 D1 F9      	JSR		L_Display_lcd_d11_Prog_Normal
   127 00:F819: 53 10         	LDA		#16
   128 00:F81B: 15 D6 F9      	JSR		L_Display_lcd_d12_Prog_Normal
   129 00:F81E: 53 05         	LDA		#5
   130 00:F820: 15 CC F9      	JSR		L_Display_lcd_d13_Prog_Normal
   131 00:F823: 15 F1 F8      	JSR		L_Dis_lcd_11H_Prog
   132 00:F826: 09            	RTS
   133                        
   134                        
   135                        
   136                        
   137                        
   138                        
   139                        
   139                        
   172                        .INCLUDE	Display\Display_Alarm.asm
     1                        
     2                        ;======================================
     3                        L_Display_Alarm_Clock_Min_Prog:
     4 00:F827: 73 C6         	LDA		R_Alarm_Clock_Min
     5 00:F829: 16 81 F9      	JMP		L_Display_lcd_Prog_Normal_Min
     6                        ;=====================================
     7                        L_Display_Alarm_Clock_Hr_Prog:
     8 00:F82C: 73 C7         	LDA		R_Alarm_Clock_Hr
     9 00:F82E: 16 90 F9      	JMP		L_Display_lcd_Prog_Normal_Hr
    10                        ;=====================================
    11                        L_Display_Alarm_Clock_Day_Prog:
    12 00:F831: 73 C8         	LDA		R_Alarm_Clock_Day
    13 00:F833: 13 21             BEQ     L_Dis_Minus_Prog_Day
    14 00:F835: 16 AE F9      	JMP		L_Display_lcd_Prog_Normal_Day
    15                        ;=====================================
    16                        L_Display_Alarm_Clock_Month_Prog:
    17 00:F838: 73 C9         	LDA		R_Alarm_Clock_Month
    18 00:F83A: 13 28             BEQ     L_Dis_Minus_Prog_Month
    19 00:F83C: 16 BD F9      	JMP		L_Display_lcd_Prog_Normal_Month
    20                        ;===================================
    21                        L_Display_Alarm_Hourly_Prog:
    22 00:F83F: 15 FC F9          JSR     L_Clr_lcd_Prog
    23 00:F842: 15 5A F9          JSR     L_Clr_lcd_D4_Prog
    24 00:F845: 16 19 FA          JMP     L_Clr_Hr_Prog
    25                        ;====================================
    26                        L_Display_Alarm_Clock_AL_Symbol_Prog:
    27 00:F848: 53 12             LDA     #18
    28 00:F84A: 5E 54             LDX     #lcd_d13
    29 00:F84C: 15 75 F4          JSR     L_Dis_8Bit_DigitDot_Prog
    30 00:F84F: 53 14             LDA     #20
    31 00:F851: 5E 4D             LDX     #lcd_d12
    32 00:F853: 16 75 F4          JMP     L_Dis_8Bit_DigitDot_Prog
    33                        
    34                        
    35                        L_Dis_Minus_Prog_Day:
    36 00:F856: 53 0B             LDA     #11
    37 00:F858: 5E 2A             LDX     #lcd_d7
    38 00:F85A: 15 75 F4          JSR     L_Dis_8Bit_DigitDot_Prog
    39 00:F85D: 53 0B             LDA     #11
    40 00:F85F: 5E 31             LDX     #lcd_d8
    41 00:F861: 16 75 F4          JMP     L_Dis_8Bit_DigitDot_Prog
    42                        
    43                        L_Dis_Minus_Prog_Month:
    44 00:F864: 53 0B             LDA     #11
    45 00:F866: 5E 38             LDX     #lcd_d9
    46 00:F868: 15 75 F4          JSR     L_Dis_8Bit_DigitDot_Prog
    47 00:F86B: 53 0A             LDA     #10
    48 00:F86D: 5E 3F             LDX     #lcd_d10
    49 00:F86F: 16 75 F4          JMP     L_Dis_8Bit_DigitDot_Prog
    49                        
   173                        .INCLUDE	Display\Display_Timer.asm
     1                        L_Display_Positive_Timer_Sec_Prog:
     2 00:F872: 73 BD         	LDA		R_Timer_Sec
     3 00:F874: 16 6D F9      	JMP		L_Display_lcd_Prog_Normal_Sec
     4                        ;======================================
     5                        L_Display_Positive_Timer_Min_Prog:
     6 00:F877: 73 BE         	LDA		R_Timer_Min
     7 00:F879: 16 81 F9      	JMP		L_Display_lcd_Prog_Normal_Min
     8                        ;=====================================
     9                        L_Display_Positive_Timer_Hr_Prog:
    10 00:F87C: 73 BF         	LDA		R_Timer_Hr
    11 00:F87E: 16 90 F9      	JMP		L_Display_lcd_Prog_Normal_Hr
    12                        ;=====================================
    13                        L_Display_Positive_Timer_Ms_Prog:
    14 00:F881: 73 BC         	LDA		R_Timer_Ms
    15 00:F883: 16 AE F9      	JMP		L_Display_lcd_Prog_Normal_Day
    16                        L_Display_Positive_Timer_ST_Prog:
    17 00:F886: 53 05             LDA     #5
    18 00:F888: 15 CC F9          JSR     L_Display_lcd_d13_Prog_Normal
    19 00:F88B: 53 0F             LDA     #15
    20 00:F88D: 15 D6 F9          JSR     L_Display_lcd_d12_Prog_Normal
    21 00:F890: 16 F5 F8          JMP     L_Dis_lcd_12H_Prog
    22                        ;上面是正计时显示函数
    23                        
    24                        L_Display_Timer_Ms_Prog:
    25 00:F893: 30 A8 08      	BBR0	Sys_Flag_D,L_Display_Positive_Timer_Ms_Prog_OUT
    26 00:F896: 73 CE         	LDA		R_Mode
    27 00:F898: 56 02         	CMP		#2
    28 00:F89A: 12 02         	BNE		L_Display_Positive_Timer_Ms_Prog_OUT
    29 00:F89C: 17 E3         	BRA		L_Display_Positive_Timer_Ms_Prog
    30                        
    31                        L_Display_Positive_Timer_Ms_Prog_OUT:
    32 00:F89E: 09            	RTS
    33                        
    34                        ;==========================================
    35                        L_Display_Destive_Timer_Sec_Prog:
    36 00:F89F: 73 C0         	LDA		R_Timer_Sec_Countdown
    37 00:F8A1: 16 6D F9      	JMP		L_Display_lcd_Prog_Normal_Sec
    38                        ;======================================
    39                        L_Display_Destive_Timer_Min_Prog:
    40 00:F8A4: 73 C1         	LDA		R_Timer_Min_Countdown
    41 00:F8A6: 16 81 F9      	JMP		L_Display_lcd_Prog_Normal_Min
    42                        ;=====================================
    43                        L_Display_Destive_Timer_Hr_Prog:
    44 00:F8A9: 73 C2         	LDA		R_Timer_Hr_Countdown
    45 00:F8AB: 16 90 F9      	JMP		L_Display_lcd_Prog_Normal_Hr
    46                        
    47                        L_Display_Destive_Timer_TR_Symbol_Prog:
    48 00:F8AE: 53 0F             LDA     #15
    49 00:F8B0: 15 CC F9          JSR     L_Display_lcd_d13_Prog_Normal
    50 00:F8B3: 53 12             LDA     #18
    51 00:F8B5: 15 D6 F9          JSR     L_Display_lcd_d12_Prog_Normal
    52 00:F8B8: 15 FD F8      	JSR		L_Dis_lcd_13H_Prog
    53 00:F8BB: 16 F5 F8          JMP     L_Dis_lcd_12H_Prog
    53                        
   174                        .INCLUDE	Display\Display_Symbol.asm
     1                        ;显示闹钟标志，贪睡标志的清除
     2                        L_Clr_Alm_Snz_Symbol_Prog:
     3 00:F8BE: 5E 62             LDX     #lcd_Alm
     4 00:F8C0: 15 C0 F4          JSR     F_ClrpSymbol
     5 00:F8C3: 5E 63             LDX     #lcd_Snz
     6 00:F8C5: 16 C0 F4          JMP     F_ClrpSymbol
     7                        L_Dis_Alm_Snz_Symbol_Prog:
     8 00:F8C8: 73 CA             LDA     R_Alarm_Mode
     9 00:F8CA: 13 F2             BEQ     L_Clr_Alm_Snz_Symbol_Prog
    10 00:F8CC: 56 01             CMP     #1
    11 00:F8CE: 13 05             BEQ     L_Dis_Alm_Snz_Symbol_Prog_1
    12 00:F8D0: 5E 63             LDX     #lcd_Snz
    13 00:F8D2: 15 B9 F4          JSR     F_DispSymbol
    14                        L_Dis_Alm_Snz_Symbol_Prog_1:
    15 00:F8D5: 5E 62             LDX     #lcd_Alm
    16 00:F8D7: 16 B9 F4          JMP     F_DispSymbol
    17                        ;========================================
    18                        L_Dis_Sig_Symbol_Prog:
    19 00:F8DA: 5E 64             LDX     #lcd_Sig
    20 00:F8DC: 16 B9 F4          JMP     F_DispSymbol
    21                        L_Clr_Sig_Symbol_Prog:
    22 00:F8DF: 5E 64             LDX     #lcd_Sig
    23 00:F8E1: 16 C0 F4          JMP     F_ClrpSymbol
    24                        
    25                        
    26                        L_Dis_col_Prog:
    27 00:F8E4: 5E 5B             LDX     #lcd_col
    28                        L_Dis_Symbol_Prog:
    29 00:F8E6: 16 B9 F4          JMP     F_DispSymbol
    30                        L_Dis_lcd_D2_Prog:
    31 00:F8E9: 5E 66             LDX     #lcd_D2
    32 00:F8EB: 17 F9             BRA		L_Dis_Symbol_Prog
    33                        L_Dis_lcd_11I_Prog:
    34 00:F8ED: 5E 5C             LDX     #lcd_11I
    35 00:F8EF: 17 F5             BRA		L_Dis_Symbol_Prog
    36                        L_Dis_lcd_11H_Prog:
    37 00:F8F1: 5E 5D             LDX     #lcd_11H
    38 00:F8F3: 17 F1             BRA		L_Dis_Symbol_Prog
    39                        L_Dis_lcd_12H_Prog:
    40 00:F8F5: 5E 5E         	LDX     #lcd_12H
    41 00:F8F7: 17 ED             BRA		L_Dis_Symbol_Prog
    42                        L_Dis_lcd_13I_Prog:
    43 00:F8F9: 5E 5F             LDX     #lcd_13I
    44 00:F8FB: 17 E9             BRA		L_Dis_Symbol_Prog
    45                        L_Dis_lcd_13H_Prog:
    46 00:F8FD: 5E 60         	LDX     #lcd_13H
    47 00:F8FF: 17 E5             BRA		L_Dis_Symbol_Prog
    48                        L_Dis_lcd_13J_Prog:
    49 00:F901: 5E 61             LDX     #lcd_13J
    50 00:F903: 17 E1             BRA		L_Dis_Symbol_Prog
    51                        L_Dis_lcd_Alm_Prog:
    52 00:F905: 5E 62             LDX     #lcd_Alm
    53 00:F907: 17 DD             BRA		L_Dis_Symbol_Prog
    54                        L_Dis_lcd_Snz_Prog:
    55 00:F909: 5E 63             LDX     #lcd_Snz
    56 00:F90B: 17 D9             BRA		L_Dis_Symbol_Prog
    57                        L_Dis_lcd_Sig_Prog:
    58 00:F90D: 5E 64             LDX     #lcd_Sig
    59 00:F90F: 17 D5             BRA		L_Dis_Symbol_Prog
    60                        L_Dis_lcd_24_Prog:
    61 00:F911: 5E 65             LDX     #lcd_24
    62 00:F913: 17 D1             BRA		L_Dis_Symbol_Prog
    63                        L_Dis_lcd_PM_Prog:
    64 00:F915: 5E 66             LDX     #lcd_PM
    65 00:F917: 17 CD             BRA		L_Dis_Symbol_Prog
    66                        L_Dis_lcd_Timer_Zheng_Prog:
    67 00:F919: 5E 67             LDX     #lcd_Timer_Zheng
    68 00:F91B: 17 C9             BRA		L_Dis_Symbol_Prog
    69                        L_Dis_lcd_D4_Prog:
    70 00:F91D: 5E 68             LDX     #lcd_D4
    71 00:F91F: 17 C5             BRA		L_Dis_Symbol_Prog
    72                        
    73                        ;================================
    74                        L_Clr_col_Prog:
    75 00:F921: 5E 5B             LDX     #lcd_col
    76                        L_Clr_Symbol_Prog:
    77 00:F923: 16 C0 F4          JMP     F_ClrpSymbol
    78                        L_Clr_lcd_D2_Prog:
    79 00:F926: 5E 66             LDX     #lcd_D2
    80 00:F928: 17 F9             BRA		L_Clr_Symbol_Prog
    81                        L_Clr_lcd_11I_Prog:
    82 00:F92A: 5E 5C             LDX     #lcd_11I
    83 00:F92C: 17 F5             BRA		L_Clr_Symbol_Prog
    84                        L_Clr_lcd_11H_Prog:
    85 00:F92E: 5E 5D             LDX     #lcd_11H
    86 00:F930: 17 F1             BRA		L_Clr_Symbol_Prog
    87                        L_Clr_lcd_12H_Prog:
    88 00:F932: 5E 5E         	LDX     #lcd_12H
    89 00:F934: 17 ED             BRA		L_Clr_Symbol_Prog
    90                        L_Clr_lcd_13I_Prog:
    91 00:F936: 5E 5F             LDX     #lcd_13I
    92 00:F938: 17 E9             BRA		L_Clr_Symbol_Prog
    93                        L_Clr_lcd_13H_Prog:
    94 00:F93A: 5E 60         	LDX     #lcd_13H
    95 00:F93C: 17 E5             BRA		L_Clr_Symbol_Prog
    96                        L_Clr_lcd_13J_Prog:
    97 00:F93E: 5E 61             LDX     #lcd_13J
    98 00:F940: 17 E1             BRA		L_Clr_Symbol_Prog
    99                        L_Clr_lcd_Alm_Prog:
   100 00:F942: 5E 62             LDX     #lcd_Alm
   101 00:F944: 17 DD             BRA		L_Clr_Symbol_Prog
   102                        L_Clr_lcd_Snz_Prog:
   103 00:F946: 5E 63             LDX     #lcd_Snz
   104 00:F948: 17 D9             BRA		L_Clr_Symbol_Prog
   105                        L_Clr_lcd_Sig_Prog:
   106 00:F94A: 5E 64             LDX     #lcd_Sig
   107 00:F94C: 17 D5             BRA		L_Clr_Symbol_Prog
   108                        L_Clr_lcd_24_Prog:
   109 00:F94E: 5E 65             LDX     #lcd_24
   110 00:F950: 17 D1             BRA		L_Clr_Symbol_Prog
   111                        L_Clr_lcd_PM_Prog:
   112 00:F952: 5E 66             LDX     #lcd_PM
   113 00:F954: 17 CD             BRA		L_Clr_Symbol_Prog
   114                        L_Clr_lcd_Timer_Zheng_Prog:
   115 00:F956: 5E 67             LDX     #lcd_Timer_Zheng
   116 00:F958: 17 C9             BRA		L_Clr_Symbol_Prog
   117                        L_Clr_lcd_D4_Prog:
   118 00:F95A: 5E 68             LDX     #lcd_D4
   119 00:F95C: 17 C5             BRA		L_Clr_Symbol_Prog
   120                        
   121                        
   122                        
   123                        
   124                        
   125                        
   126                        
   127                        
   128                        
   129                        
   130                        
   131                        
   132                        
   132                        
   175                        .INCLUDE	Display\Display_Normal.asm
     1                        L_Display_lcd_Prog_Normal_Timer:;显示秒数的lcd_3，lcd4
     2 00:F95E: 15 5A FA          JSR		L_A_HexToHexD
     3 00:F961: 0A            	PHA
     4 00:F962: 51 0F         	AND		#$0F
     5 00:F964: 5E 1C             LDX     #lcd_d5
     6 00:F966: 15 75 F4          JSR		L_Dis_8Bit_DigitDot_Prog
     7 00:F969: 5E 23         	LDX		#lcd_d6
     8 00:F96B: 17 0D         	BRA		L_Display_lcd_Prog_Normal
     9                        ;====================================
    10                        L_Display_lcd_Prog_Normal_Sec:;显示秒数的lcd_1，lcd2
    11 00:F96D: 15 5A FA          JSR		L_A_HexToHexD
    12 00:F970: 0A            	PHA
    13 00:F971: 51 0F         	AND		#$0F
    14 00:F973: 5E 00             LDX     #lcd_d1
    15 00:F975: 15 75 F4          JSR		L_Dis_8Bit_DigitDot_Prog
    16 00:F978: 5E 07         	LDX		#lcd_d2
    17                        L_Display_lcd_Prog_Normal:
    18 00:F97A: 0C            	PLA
    19 00:F97B: 15 D8 F4      	JSR		L_ROR_4Bit_Prog
    20 00:F97E: 16 75 F4      	JMP		L_Dis_8Bit_DigitDot_Prog
    21                        ;=======================================
    22                        L_Display_lcd_Prog_Normal_Min:;显示秒数的lcd_3，lcd4
    23 00:F981: 15 5A FA          JSR		L_A_HexToHexD
    24 00:F984: 0A            	PHA
    25 00:F985: 51 0F         	AND		#$0F
    26 00:F987: 5E 0E             LDX     #lcd_d3
    27 00:F989: 15 75 F4          JSR		L_Dis_8Bit_DigitDot_Prog
    28 00:F98C: 5E 15         	LDX		#lcd_d4
    29 00:F98E: 17 EA         	BRA		L_Display_lcd_Prog_Normal
    30                        ;=================================
    31                        L_Display_lcd_Prog_Normal_Hr:;显示秒数的lcd_5，lcd6
    32 00:F990: 15 80 FA          JSR		L_12_24_Prog
    33 00:F993: 15 5A FA          JSR		L_A_HexToHexD
    34 00:F996: 0A            	PHA
    35 00:F997: 51 0F         	AND		#$0F
    36 00:F999: 5E 1C             LDX     #lcd_d5
    37 00:F99B: 15 75 F4          JSR		L_Dis_8Bit_DigitDot_Prog
    38 00:F99E: 5E 23         	LDX		#lcd_d6
    39                        L_Display_lcd_Prog_Normal_1:
    40 00:F9A0: 0C            	PLA
    41 00:F9A1: 15 D8 F4      	JSR		L_ROR_4Bit_Prog
    42 00:F9A4: 13 03         	BEQ		L_Display_lcd_Prog_Normal_Hr_1
    43 00:F9A6: 16 75 F4      	JMP		L_Dis_8Bit_DigitDot_Prog
    44                        
    45                        
    46                        L_Display_lcd_Prog_Normal_Hr_1:
    47 00:F9A9: 53 0A         	LDA		#10
    48 00:F9AB: 16 75 F4      	JMP		L_Dis_8Bit_DigitDot_Prog
    49                        ;=======================================
    50                        L_Display_lcd_Prog_Normal_Day:;显示秒数的lcd_3，lcd4
    51 00:F9AE: 15 5A FA          JSR		L_A_HexToHexD
    52 00:F9B1: 0A            	PHA
    53 00:F9B2: 51 0F         	AND		#$0F
    54 00:F9B4: 5E 2A             LDX     #lcd_d7
    55 00:F9B6: 15 75 F4          JSR		L_Dis_8Bit_DigitDot_Prog
    56 00:F9B9: 5E 31         	LDX		#lcd_d8
    57 00:F9BB: 17 BD         	BRA		L_Display_lcd_Prog_Normal
    58                        ;=================================
    59                        L_Display_lcd_Prog_Normal_Month:;显示秒数的lcd_5，lcd6
    60 00:F9BD: 15 5A FA          JSR		L_A_HexToHexD
    61 00:F9C0: 0A            	PHA
    62 00:F9C1: 51 0F         	AND		#$0F
    63 00:F9C3: 5E 38             LDX     #lcd_d9
    64 00:F9C5: 15 75 F4          JSR		L_Dis_8Bit_DigitDot_Prog
    65 00:F9C8: 5E 3F         	LDX		#lcd_d10
    66 00:F9CA: 17 D4         	BRA		L_Display_lcd_Prog_Normal_1
    67                        ;=================================
    68                        L_Display_lcd_d13_Prog_Normal:
    69 00:F9CC: 5E 54         	LDX		#lcd_d13
    70 00:F9CE: 16 75 F4      	JMP		L_Dis_8Bit_DigitDot_Prog
    71                        L_Display_lcd_d11_Prog_Normal:
    72 00:F9D1: 5E 46         	LDX		#lcd_d11
    73 00:F9D3: 16 75 F4      	JMP		L_Dis_8Bit_DigitDot_Prog
    74                        L_Display_lcd_d12_Prog_Normal:
    75 00:F9D6: 5E 4D         	LDX		#lcd_d12
    76 00:F9D8: 16 75 F4      	JMP		L_Dis_8Bit_DigitDot_Prog
    77                        ;==================================
    78                        L_Clr_Time_Week_Prog:
    79 00:F9DB: 53 0A         	LDA		#10
    80 00:F9DD: 15 D1 F9      	JSR		L_Display_lcd_d11_Prog_Normal
    81 00:F9E0: 53 0A         	LDA		#10
    82 00:F9E2: 15 D6 F9      	JSR		L_Display_lcd_d12_Prog_Normal
    83 00:F9E5: 53 0A         	LDA		#10
    84 00:F9E7: 15 CC F9      	JSR		L_Display_lcd_d13_Prog_Normal
    85 00:F9EA: 15 2A F9      	JSR		L_Clr_lcd_11I_Prog
    86 00:F9ED: 15 2E F9      	JSR		L_Clr_lcd_11H_Prog
    87 00:F9F0: 15 32 F9      	JSR		L_Clr_lcd_12H_Prog
    88 00:F9F3: 15 3A F9      	JSR		L_Clr_lcd_13H_Prog
    89 00:F9F6: 15 36 F9      	JSR		L_Clr_lcd_13I_Prog
    90 00:F9F9: 16 3E F9      	JMP		L_Clr_lcd_13J_Prog
    91                        ;===============================
    92                        L_Clr_lcd_Prog:
    93 00:F9FC: 15 23 FA          JSR     L_Clr_Day_Prog
    94 00:F9FF: 15 2D FA          JSR     L_Clr_Month_Prog
    95 00:FA02: 16 26 F9          JMP     L_Clr_lcd_D2_Prog
    96                        ;==================================
    97                        L_Clr_Sec_Prog:
    98 00:FA05: 5E 00             LDX     #lcd_d1
    99 00:FA07: 7C DC             STX     P_Temp+4
   100 00:FA09: 5E 07             LDX     #lcd_d2
   101 00:FA0B: 7C DD             STX     P_Temp+5
   102 00:FA0D: 17 28             BRA     L_Clr_usually_Prog
   103                        L_Clr_Min_Prog:
   104 00:FA0F: 5E 0E             LDX     #lcd_d3
   105 00:FA11: 7C DC             STX     P_Temp+4
   106 00:FA13: 5E 15             LDX     #lcd_d4
   107 00:FA15: 7C DD             STX     P_Temp+5
   108 00:FA17: 17 1E             BRA     L_Clr_usually_Prog
   109                        L_Clr_Hr_Prog:
   110 00:FA19: 5E 1C             LDX     #lcd_d5
   111 00:FA1B: 7C DC             STX     P_Temp+4
   112 00:FA1D: 5E 23             LDX     #lcd_d6
   113 00:FA1F: 7C DD             STX     P_Temp+5
   114 00:FA21: 17 14             BRA     L_Clr_usually_Prog
   115                        L_Clr_Day_Prog:
   116 00:FA23: 5E 2A             LDX     #lcd_d7
   117 00:FA25: 7C DC             STX     P_Temp+4
   118 00:FA27: 5E 31             LDX     #lcd_d8
   119 00:FA29: 7C DD             STX     P_Temp+5
   120 00:FA2B: 17 0A             BRA     L_Clr_usually_Prog
   121                        L_Clr_Month_Prog:
   122 00:FA2D: 5E 38             LDX     #lcd_d9
   123 00:FA2F: 7C DC             STX     P_Temp+4
   124 00:FA31: 5E 3F             LDX     #lcd_d10
   125 00:FA33: 7C DD             STX     P_Temp+5
   126 00:FA35: 17 00             BRA     L_Clr_usually_Prog
   127                        
   128                        L_Clr_usually_Prog:
   129 00:FA37: 53 0A             LDA     #10
   130 00:FA39: 7E DC             LDX     P_Temp+4
   131 00:FA3B: 15 75 F4          JSR     L_Dis_8Bit_DigitDot_Prog
   132 00:FA3E: 53 0A             LDA     #10
   133 00:FA40: 7E DD             LDX     P_Temp+5
   134 00:FA42: 16 75 F4          JMP     L_Dis_8Bit_DigitDot_Prog
   135                        L_Clr_Year_Prog:
   136 00:FA45: 5E 0E             LDX     #lcd_d3
   137 00:FA47: 7C DC             STX     P_Temp+4
   138 00:FA49: 5E 15             LDX     #lcd_d4
   139 00:FA4B: 7C DD             STX     P_Temp+5
   140 00:FA4D: 15 37 FA          JSR     L_Clr_usually_Prog
   141 00:FA50: 5E 1C             LDX     #lcd_d5
   142 00:FA52: 7C DC             STX     P_Temp+4
   143 00:FA54: 5E 23             LDX     #lcd_d6
   144 00:FA56: 7C DD             STX     P_Temp+5
   145 00:FA58: 17 DD             BRA     L_Clr_usually_Prog
   145                        
   176                        
   177                        .INCLUDE	Display\Tool.asm
     1                        L_A_HexToHexD:
     2 00:FA5A: 7F D8         	STA		P_Temp								; 将十进制输入保存到 P_Temp
     3 00:FA5C: 53 00         	LDA		#0									; 初始化高位寄存器
     4 00:FA5E: 7F D9         	STA		P_Temp+1							; 高位清零
     5 00:FA60: 7F DA         	STA		P_Temp+2							; 低位清零
     6                        
     7                        L_DecToHex_Loop:
     8 00:FA62: 73 D8         	LDA		P_Temp								; 读取当前十进制值
     9 00:FA64: 56 0A         	CMP		#10
    10 00:FA66: 10 09         	BCC		L_DecToHex_End						; 如果小于16，则跳到结束
    11                        
    12 00:FA68: 00            	SEC											; 启用借位
    13 00:FA69: 55 0A         	SBC		#10									; 减去16
    14 00:FA6B: 7F D8         	STA		P_Temp								; 更新十进制值
    15 00:FA6D: 78 D9         	INC		P_Temp+1							; 高位+1，累加十六进制的十位
    16                        
    17 00:FA6F: 17 F1         	BRA		L_DecToHex_Loop						; 重复循环
    18                        
    19                        L_DecToHex_End:
    20 00:FA71: 73 D8         	LDA		P_Temp								; 最后剩余的值是低位
    21 00:FA73: 7F DA         	STA		P_Temp+2							; 存入低位
    22                        
    23 00:FA75: 73 D9         	LDA		P_Temp+1							; 将高位放入A寄存器准备结果组合
    24 00:FA77: 04            	CLC
    25 00:FA78: 18            	ROL
    26 00:FA79: 18            	ROL
    27 00:FA7A: 18            	ROL
    28 00:FA7B: 18            	ROL											; 左移4次，完成乘16
    29 00:FA7C: 04            	CLC
    30 00:FA7D: 74 DA         	ADC		P_Temp+2							; 加上低位值
    31                        
    32 00:FA7F: 09            	RTS
    33                        ;===========================================
    34                        
    35                        L_12_24_Prog:;12小时和24小时切换
    36 00:FA80: 7F D0         	STA		R_Time_Hr_am_pm
    37 00:FA82: 3A A6 2C      	BBS2	Sys_Flag_B,L_12_24_Prog_5;判断是24小时制跳转退出
    38 00:FA85: 73 D0         	LDA		R_Time_Hr_am_pm
    39 00:FA87: 13 0F         	BEQ		L_12_24_Prog_1;为0是跳转
    40 00:FA89: 56 0B         	CMP		#11
    41 00:FA8B: 13 02         	BEQ		L_12_24_Prog_4
    42 00:FA8D: 11 12         	BCS		L_12_24_Prog_3;比12大时跳转
    43                        L_12_24_Prog_4:
    44 00:FA8F: 15 4E F9      	JSR		L_Clr_lcd_24_Prog
    45 00:FA92: 15 52 F9      	JSR		L_Clr_lcd_PM_Prog
    46 00:FA95: 73 D0         	LDA		R_Time_Hr_am_pm
    47                        L_12_24_Prog_OUT:
    48 00:FA97: 09            	RTS
    49                        L_12_24_Prog_1:;0点
    50 00:FA98: 15 4E F9      	JSR		L_Clr_lcd_24_Prog
    51 00:FA9B: 15 52 F9      	JSR		L_Clr_lcd_PM_Prog
    52 00:FA9E: 53 0C         	LDA		#12
    53 00:FAA0: 09            	RTS
    54                        L_12_24_Prog_3:
    55 00:FAA1: 15 4E F9      	JSR		L_Clr_lcd_24_Prog
    56 00:FAA4: 15 15 F9      	JSR		L_Dis_lcd_PM_Prog
    57 00:FAA7: 73 D0         	LDA		R_Time_Hr_am_pm
    58 00:FAA9: 56 0C         	CMP		#12
    59 00:FAAB: 13 EA         	BEQ		L_12_24_Prog_OUT
    60 00:FAAD: 00            	SEC
    61 00:FAAE: 55 0C         	SBC		#12
    62 00:FAB0: 09            	RTS
    63                        L_12_24_Prog_5:
    64 00:FAB1: 15 11 F9      	JSR		L_Dis_lcd_24_Prog
    65 00:FAB4: 15 52 F9      	JSR		L_Clr_lcd_PM_Prog
    66 00:FAB7: 73 D0         	LDA		R_Time_Hr_am_pm
    67                        	RTS
    67 00:FAB9: 09            
   178                        
   179                        .INCLUDE	Half_s\Half.asm
     1                        L_Half_Second_Prog:
     2 00:FABA: 30 A6 0E      	BBR0 	Sys_Flag_B,L_END_Half_Second_Prog	;判断半秒标志
     3 00:FABD: 20 A6         	RMB0 	Sys_Flag_B							;清楚半秒标志
     4 00:FABF: 73 AE         	LDA		R_Reset_Time
     5 00:FAC1: 12 2A         	BNE		L_Reset_2s_Prog
     6 00:FAC3: 39 A6 06      	BBS1	Sys_Flag_B,L_1Second_Prog			;判断一秒标志
     7 00:FAC6: 29 A6         	SMB1	Sys_Flag_B							;设置1秒标志
     8 00:FAC8: 15 28 FE      	JSR		L_SysFlash_Prog						;闪烁程序
     9                        L_END_Half_Second_Prog:
    10 00:FACB: 09                RTS
    11                        ;=================================================================
    12                        L_1Second_Prog:
    13 00:FACC: 21 A6             RMB1    Sys_Flag_B;清除1秒标志
    14 00:FACE: 15 D4 FD      	JSR		L_Set_Mode_Auto_Exit
    15 00:FAD1: 15 03 FE      	JSR		L_Control_Light_Auto_Exit_Prog
    16 00:FAD4: 15 1E FE      	JSR		L_Control_All_Dis_Auto_Exit_Prog
    17 00:FAD7: 15 22 FF      	JSR		L_Control_Beep_prog_Auto_Exit
    18                        
    19                        
    20 00:FADA: 15 01 FB      	JSR     L_Update_Time_Prog
    21 00:FADD: 15 8B FB      	JSR		L_Update_Another_Time_Prog
    22 00:FAE0: 15 E0 FC      	JSR		L_Alarm_Prog
    23 00:FAE3: 15 5D FD          JSR     L_Positive_Timer
    24 00:FAE6: 15 89 FD      	JSR		L_Desitive_Timer
    25 00:FAE9: 15 C9 F5      	JSR		L_Display_Normal_Prog
    26 00:FAEC: 09            	RTS
    27                        ;==============================================================
    28                        L_Reset_2s_Prog:;全显
    29 00:FAED: 79 AE         	DEC		R_Reset_Time
    30 00:FAEF: 73 AE         	LDA		R_Reset_Time
    31 00:FAF1: 12 0A         	BNE		L_End_Reset_2s_Prog
    32 00:FAF3: 15 17 F1      	JSR		L_Clr_All_DisRam_Prog
    33 00:FAF6: 15 CC F6      	JSR		L_Display_Prog
    34 00:FAF9: 15 42 FF      	JSR		L_Beep_1s
    35 00:FAFC: 09            	RTS
    36                        L_End_Reset_2s_Prog:
    37 00:FAFD: 15 05 F1      	JSR		L_Dis_All_DisRam_Prog
    38 00:FB00: 09            	RTS
    38                        
   180                        .INCLUDE	Half_s\Clock.asm
     1                        ;=========================
     2                        L_Update_Time_Prog:
     3 00:FB01: 15 4F FB      	JSR		L_Update_Time_Ms_Prog
     4 00:FB04: 15 60 FB      	JSR		L_Update_Time_Sec_Prog
     5                        
     6                        
     7 00:FB07: 10 20         	BCC		L_End_Update_Time_Prog
     8                        
     9 00:FB09: 15 65 FB      	JSR		L_Update_Time_Min_Prog
    10 00:FB0C: 15 3A FB      	JSR		L_Control_Snz_Prog
    11                        
    12 00:FB0F: 10 18         	BCC		L_End_Update_Time_Prog
    13                        
    14                        
    15 00:FB11: 15 2A FB      	JSR		L_Control_Beep_Time_On_Alarm_Prog
    16 00:FB14: 15 6A FB      	JSR		L_Update_Time_Hr_Prog
    17                        
    18                        
    19 00:FB17: 10 10         	BCC		L_End_Update_Time_Prog
    20                        
    21 00:FB19: 15 71 FB      	JSR		L_Update_Time_Day_Prog
    22                        
    23                        
    24 00:FB1C: 10 08         	BCC		L_End_Update_Date_Prog
    25                        
    26 00:FB1E: 15 79 FB      	JSR		L_Update_Time_Month_Prog
    27                        
    28                        
    29 00:FB21: 10 03         	BCC		L_End_Update_Date_Prog
    30                        
    31 00:FB23: 15 80 FB      	JSR		L_Update_Time_Year_Prog
    32                        
    33                        
    34                        L_End_Update_Date_Prog:
    35 00:FB26: 15 3D FC      	JSR		L_Auto_Counter_Week
    36                        L_End_Update_Time_Prog:
    37 00:FB29: 09            	RTS
    38                        ;================================================
    39                        L_Control_Beep_Time_On_Alarm_Prog:;控制整点报时
    40 00:FB2A: 31 A7 FC      	BBR1	Sys_Flag_C,L_End_Update_Time_Prog;判断整点报时是否开启
    41 00:FB2D: 15 E0 FC      	JSR		L_Alarm_Prog
    42 00:FB30: 34 A7 F6      	BBR4	Sys_Flag_C,L_End_Update_Time_Prog;判断闹钟是否开启
    43 00:FB33: 53 02         	LDA		#2
    44 00:FB35: 7F D7         	STA		R_Voice_Unit
    45                        	EN_LCD_IRQ
+   45 00:FB37: 2E 0E          SMB6 IER
    46 00:FB39: 09            	RTS
    47                        ;==================================================
    48                        ;控制贪睡闹钟
    49                        L_Control_Snz_Prog:
    50 00:FB3A: 37 A7 EC      	BBR7	Sys_Flag_C,L_End_Update_Time_Prog
    51 00:FB3D: 79 CC         	DEC		R_Snz_Time
    52 00:FB3F: 12 E8         	BNE		L_End_Update_Time_Prog
    53 00:FB41: 53 05         	LDA		#D_Snz_Time
    54 00:FB43: 7F CC         	STA		R_Snz_Time
    55 00:FB45: 15 31 FD      	JSR		L_Alarm_Control_Prog_2
    56 00:FB48: 79 05         	DEC		D_Snz_Time
    57 00:FB4A: 12 DD         	BNE		L_End_Update_Time_Prog
    58 00:FB4C: 27 A7         	RMB7	Sys_Flag_C
    59 00:FB4E: 09            	RTS
    60                        L_Update_Time_Ms_Prog:
    61 00:FB4F: 73 CE         	LDA		R_Mode
    62 00:FB51: 56 02         	CMP		#2
    63 00:FB53: 12 D4         	BNE		L_End_Update_Time_Prog
    64 00:FB55: 38 A8 D1      	BBS0	Sys_Flag_D,L_End_Update_Time_Prog
    65 00:FB58: 53 00         	LDA		#0
    66 00:FB5A: 7F BC         	STA		R_Timer_Ms
    67 00:FB5C: 15 AE F9      	JSR		L_Display_lcd_Prog_Normal_Day
    68 00:FB5F: 09            	RTS
    69                        ;===================================
    70                        ;-----时间的增加---------------------
    71                        ;===================================
    72                        ;----------------------------------
    73                        L_Update_Time_Sec_Prog:
    74 00:FB60: 5E 00         	LDX 	#(R_Time_Sec-Time_Str_Addr)
    75 00:FB62: 16 A4 FB      	JMP		L_Inc_To_60_Prog
    76                        L_Update_Time_Min_Prog:;时间分钟更新加
    77 00:FB65: 5E 01         	LDX		#(R_Time_Min-Time_Str_Addr)
    78 00:FB67: 16 A4 FB      	JMP		L_Inc_To_60_Prog
    79                        ;---------------------------
    80                        L_Update_Time_Hr_Prog:;时间小时更新加
    81 00:FB6A: 5E 02         	LDX		#(R_Time_Hr-Time_Str_Addr)
    82 00:FB6C: 53 17         	LDA		#23
    83 00:FB6E: 16 A6 FB      	JMP		L_Inc_To_Any_Count_Prog
    84                        ;----------------------------------
    85                        L_Update_Time_Day_Prog:;时间天数更新加
    86 00:FB71: 15 F8 FB      	JSR		L_Check_MaxDay_Prog
    87 00:FB74: 5E 03         	LDX		#(R_Time_Day-Time_Str_Addr)
    88 00:FB76: 16 C0 FB      	JMP		L_Inc_To_Any_Count_Prog_To_1
    89                        ;-------------------------------------
    90                        L_Update_Time_Month_Prog:;时间月更新加
    91 00:FB79: 5E 04         	LDX		#(R_Time_Month-Time_Str_Addr)
    92 00:FB7B: 53 0C         	LDA		#12
    93 00:FB7D: 16 C0 FB      	JMP		L_Inc_To_Any_Count_Prog_To_1
    94                        
    95                        ;----------------------------------
    96                        L_Update_Time_Year_Prog:;时间年更新加
    97 00:FB80: 5E 05         	LDX		#(R_Time_Year-Time_Str_Addr)
    98 00:FB82: 53 63         	LDA		#99
    99 00:FB84: 15 A6 FB      	JSR		L_Inc_To_Any_Count_Prog
   100 00:FB87: 15 07 FC      	JSR		L_Judge_MaxDay_Prog
   101 00:FB8A: 09            	RTS
   102                        ;======================================
   103                        ;---------第二时间更新------------------
   104                        ;======================================
   105                        L_Update_Another_Time_Prog:
   106 00:FB8B: 73 B3         	LDA		R_Time_Sec
   107 00:FB8D: 12 08         	BNE		L_Update_Another_Time_Prog_OUT
   108 00:FB8F: 15 98 FB      	JSR		L_Update_Another_Time_Min_Prog
   109 00:FB92: 10 03         	BCC		L_Update_Another_Time_Prog_OUT
   110 00:FB94: 15 9D FB      	JSR		L_Update_Another_Time_Hr_Prog
   111                        L_Update_Another_Time_Prog_OUT:
   112 00:FB97: 09            	RTS
   113                        
   114                        L_Update_Another_Time_Min_Prog:;时间分钟更新加
   115 00:FB98: 5E 07         	LDX		#(R_Time_Min_Another-Time_Str_Addr)
   116 00:FB9A: 16 A4 FB      	JMP		L_Inc_To_60_Prog
   117                        ;---------------------------
   118                        L_Update_Another_Time_Hr_Prog:;时间小时更新加
   119 00:FB9D: 5E 08         	LDX		#(R_Time_Hr_Another-Time_Str_Addr)
   120 00:FB9F: 53 17         	LDA		#23
   121 00:FBA1: 16 A6 FB      	JMP		L_Inc_To_Any_Count_Prog
   122                        
   123                        
   124                        ;================================
   125                        L_Inc_To_60_Prog:;将数从0加到59
   126 00:FBA4: 53 3B         	LDA		#59
   127                        L_Inc_To_Any_Count_Prog:
   128 00:FBA6: 00            	SEC
   129 00:FBA7: 65 33 18      	SBC		Time_Addr,X
   130 00:FBAA: 13 0D         	BEQ		L_Inc_Over_Prog
   131 00:FBAC: 10 0B         	BCC		L_Inc_Over_Prog
   132 00:FBAE: 04            	CLC
   133 00:FBAF: 63 33 18      	LDA		Time_Addr,X
   134 00:FBB2: 54 01         	ADC		#1
   135 00:FBB4: 6F 33 18      	STA		Time_Addr,X
   136 00:FBB7: 04            	CLC
   137 00:FBB8: 09            	RTS
   138                        L_Inc_Over_Prog:
   139 00:FBB9: 53 00         	LDA		#0
   140 00:FBBB: 6F 33 18      	STA		Time_Addr,X
   141 00:FBBE: 00            	SEC
   142                        L_End_Inc_To_60_Prog:
   143 00:FBBF: 09            	RTS
   144                        
   145                        L_Inc_To_Any_Count_Prog_To_1:;将数从1加到59
   146 00:FBC0: 00            	SEC
   147 00:FBC1: 65 33 18      	SBC		Time_Addr,X
   148 00:FBC4: 13 0C         	BEQ		L_Inc_Over_Prog_To_1
   149 00:FBC6: 10 0A         	BCC		L_Inc_Over_Prog_To_1
   150 00:FBC8: 04            	CLC
   151 00:FBC9: 63 33 18      	LDA		Time_Addr,X
   152 00:FBCC: 54 01         	ADC		#1
   153 00:FBCE: 6F 33 18      	STA		Time_Addr,X
   154 00:FBD1: 09            	RTS
   155                        L_Inc_Over_Prog_To_1:
   156 00:FBD2: 53 01         	LDA		#1
   157 00:FBD4: 6F 33 18      	STA		Time_Addr,X
   158 00:FBD7: 09            	RTS
   159                        ;=======================================================
   160                        L_Dec_To_60_Prog:
   161 00:FBD8: 53 3B         	LDA		#59
   162                        L_Dec_To_0_Prog:
   163 00:FBDA: 7F D8         	STA		P_Temp
   164 00:FBDC: 53 00         	LDA		#0
   165                        L_Dec_To_Anycount_Prog:
   166 00:FBDE: 00            	SEC
   167 00:FBDF: 65 33 18          SBC     Time_Addr,X
   168 00:FBE2: 13 0D         	BEQ		L_Dec_Over_Prog
   169 00:FBE4: 11 0B         	BCS		L_Dec_Over_Prog
   170                        
   171 00:FBE6: 00            	SEC
   172 00:FBE7: 63 33 18      	LDA		Time_Addr,X
   173 00:FBEA: 55 01         	SBC		#1
   174 00:FBEC: 6F 33 18      	STA		Time_Addr,X
   175 00:FBEF: 00            	SEC
   176 00:FBF0: 09            	RTS
   177                        L_Dec_Over_Prog:
   178 00:FBF1: 73 D8         	LDA		P_Temp
   179 00:FBF3: 6F 33 18      	STA		Time_Addr,X
   180 00:FBF6: 04            	CLC
   181 00:FBF7: 09            	RTS
   182                        ;===============================================
   183                        ;=====================================
   184                        ;-------------------------------------
   185                        ;=====================================
   186                        L_Check_MaxDay_Prog:;检查每月的最大天数
   187 00:FBF8: 73 B7         	LDA		R_Time_Month
   188 00:FBFA: 07            	DEC
   189 00:FBFB: 1B            	TAX
   190 00:FBFC: 3B A6 04      	BBS3	Sys_Flag_B,L_Check_LeapYear_MaxDay_Prog
   191 00:FBFF: 63 95 FC      	LDA		T_NoLeapYear_Month,X
   192 00:FC02: 09            	RTS
   193                        L_Check_LeapYear_MaxDay_Prog:
   194 00:FC03: 63 89 FC      	LDA		T_LeapYear_Month,X
   195 00:FC06: 09            	RTS
   196                        ;==============================
   197                        ;------------------------------
   198                        ;==============================
   199                        L_Judge_MaxDay_Prog:;如果最大天数最大超界限，则给予月份的最大天数
   200 00:FC07: 15 F8 FB      	JSR		L_Check_MaxDay_Prog
   201 00:FC0A: 7F DD         	STA		P_Temp+5
   202 00:FC0C: 76 B6         	CMP		R_Time_Day
   203 00:FC0E: 11 04         	BCS		L_Judge_MaxDay_Prog_RTS
   204 00:FC10: 73 DD         	LDA		P_Temp+5
   205 00:FC12: 7F B6         	STA		R_Time_Day
   206                        L_Judge_MaxDay_Prog_RTS:
   207 00:FC14: 09            	RTS
   208                        ;==================================
   209                        L_Check_LeapYear_Prog:;检查是否是闰年
   210 00:FC15: 73 B8         	LDA		R_Time_Year
   211 00:FC17: 7F D8         	STA		P_Temp
   212 00:FC19: 04            	CLC
   213 00:FC1A: 7B D8         	ROR		P_Temp
   214 00:FC1C: 7E D8         	LDX		P_Temp
   215 00:FC1E: 63 A1 FC      	LDA		T_LeapYear_Week,X
   216 00:FC21: 7F D8         	STA		P_Temp
   217 00:FC23: 30 B8 0C      	BBR0	R_Time_Year,L_Counter_LeapYear;建表从2000年开始处于低四位，高四位，需要右移四位
   218 00:FC26: 04            	CLC
   219 00:FC27: 7B D8         	ROR		P_Temp
   220 00:FC29: 04            	CLC
   221 00:FC2A: 7B D8         	ROR		P_Temp
   222 00:FC2C: 04            	CLC
   223 00:FC2D: 7B D8         	ROR		P_Temp
   224 00:FC2F: 04            	CLC
   225 00:FC30: 7B D8         	ROR		P_Temp
   226                        L_Counter_LeapYear:
   227 00:FC32: 23 A6         	RMB3	Sys_Flag_B
   228 00:FC34: 53 08         	LDA		#08H
   229 00:FC36: 71 D8         	AND		P_Temp
   230 00:FC38: 70 A6         	ORA		Sys_Flag_B
   231 00:FC3A: 7F A6         	STA		Sys_Flag_B;第四位为1则为闰年，否则·为平年
   232 00:FC3C: 09            	RTS
   233                        ;===========================================
   234                        ;P_Temp,0-3bit存储对应年分的1月1日星期几，4bit存储平闰年
   235                        ;P_Temp+1存储前几个月的天数除以7的余数
   236                        L_Auto_Counter_Week:
   237 00:FC3D: 15 15 FC      	JSR		L_Check_LeapYear_Prog
   238 00:FC40: 15 07 FC      	JSR		L_Judge_MaxDay_Prog
   239 00:FC43: 73 B7         	LDA		R_Time_Month
   240 00:FC45: 1B            	TAX
   241 00:FC46: 63 D3 FC      	LDA		T_Month_Week,X
   242 00:FC49: 7F D9         	STA		P_Temp+1
   243 00:FC4B: 33 A6 0C      	BBR3	Sys_Flag_B,L_Counter_Week_2;非闰年跳转，非闰年需要将右移四位
   244 00:FC4E: 04            	CLC
   245 00:FC4F: 7B D9         	ROR		P_Temp+1
   246 00:FC51: 04            	CLC
   247 00:FC52: 7B D9         	ROR		P_Temp+1
   248 00:FC54: 04            	CLC
   249 00:FC55: 7B D9         	ROR		P_Temp+1
   250 00:FC57: 04            	CLC
   251 00:FC58: 7B D9         	ROR		P_Temp+1
   252                        L_Counter_Week_2:;十六进制运算
   253 00:FC5A: 53 0F         	LDA		#$0F
   254 00:FC5C: 71 D9         	AND		P_Temp+1;保留低四位多余的天数
   255 00:FC5E: 7F D9         	STA		P_Temp+1
   256 00:FC60: 53 07         	LDA		#7
   257 00:FC62: 71 D8         	AND		P_Temp;保留低三位位每年一月一号星期几
   258 00:FC64: 04            	CLC
   259 00:FC65: 74 D9         	ADC		P_Temp+1;每年一月一日星期几加上日期再加上多余的天数
   260 00:FC67: 74 B6         	ADC		R_Time_Day
   261 00:FC69: 7F D8         	STA		P_Temp
   262                        L_Loop_WeekSub_7:
   263 00:FC6B: 00            	SEC
   264 00:FC6C: 73 D8         	LDA		P_Temp
   265 00:FC6E: 55 07         	SBC		#7
   266 00:FC70: 10 05         	BCC		L_End_Counter_Week
   267 00:FC72: 7F D8         	STA		P_Temp
   268 00:FC74: 16 6B FC      	JMP		L_Loop_WeekSub_7
   269                        L_End_Counter_Week:
   270 00:FC77: 73 D8         	LDA		P_Temp
   271 00:FC79: 13 05         	BEQ		L_SetWeek_Sat
   272 00:FC7B: 79 D8         	DEC		P_Temp
   273 00:FC7D: 16 84 FC      	JMP		L_Exit_Counter_Week
   274                        L_SetWeek_Sat:
   275 00:FC80: 53 06         	LDA		#6
   276 00:FC82: 7F D8         	STA		P_Temp
   277                        L_Exit_Counter_Week:
   278 00:FC84: 73 D8         	LDA		P_Temp
   279 00:FC86: 7F B9         	STA		R_Time_Week
   280 00:FC88: 09            	RTS
   281                        ;===============================================
   282                        ;-------------------------------------------
   283                        T_LeapYear_Month:
   284 00:FC89: 1F            	DB		31
   285 00:FC8A: 1D            	DB		29
   286 00:FC8B: 1F            	DB		31
   287 00:FC8C: 1E            	DB		30
   288 00:FC8D: 1F            	DB		31
   289 00:FC8E: 1E            	DB		30
   290 00:FC8F: 1F            	DB		31
   291 00:FC90: 1F            	DB		31
   292 00:FC91: 1E            	DB		30
   293 00:FC92: 1F            	DB		31
   294 00:FC93: 1E            	DB		30
   295 00:FC94: 1F            	DB		31
   296                        T_NoLeapYear_Month:
   297 00:FC95: 1F            	DB		31
   298 00:FC96: 1C            	DB		28
   299 00:FC97: 1F            	DB		31
   300 00:FC98: 1E            	DB		30
   301 00:FC99: 1F            	DB		31
   302 00:FC9A: 1E            	DB		30
   303 00:FC9B: 1F            	DB		31
   304 00:FC9C: 1F            	DB		31
   305 00:FC9D: 1E            	DB		30
   306 00:FC9E: 1F            	DB		31
   307 00:FC9F: 1E            	DB		30
   308 00:FCA0: 1F            	DB		31
   309                        T_LeapYear_Week:
   310 00:FCA1: 1E            	DB		1EH   ;2001,2000 ;E="1110"代表2000年1月1日是星期六(110),是闰年(1),
   311 00:FCA2: 32            	DB		32H   ;2003,2002	;000星期天
   312 00:FCA3: 6C            	DB		6CH   ;2005,2004	;001星期一
   313 00:FCA4: 10            	DB		10H   ;2007,2006	;010星期二
   314 00:FCA5: 4A            	DB		4AH   ;2009,2008	;011星期三
   315 00:FCA6: 65            	DB		65H   ;2011,2010	;100星期四
   316 00:FCA7: 28            	DB		28H   ;2013,2012	;101星期五
   317 00:FCA8: 43            	DB		43H   ;2015,2014	;110星期六
   318 00:FCA9: 0D            	DB		0DH   ;2017,2016
   319 00:FCAA: 21            	DB		21H   ;2019,2018
   320 00:FCAB: 5B            	DB		5BH   ;2021,2020
   321 00:FCAC: 06            	DB		06H   ;2023,2022
   322 00:FCAD: 39            	DB		39H   ;2025,2024
   323 00:FCAE: 54            	DB		54H   ;2027,2026
   324 00:FCAF: 1E            	DB		1EH   ;2029,2028
   325 00:FCB0: 32            	DB		32H   ;2031,2030
   326 00:FCB1: 6C            	DB		6CH   ;2033,2032
   327 00:FCB2: 10            	DB		10H   ;2035,2034
   328 00:FCB3: 4A            	DB		4AH   ;2037,2036
   329 00:FCB4: 65            	DB		65H   ;2039,2038
   330 00:FCB5: 28            	DB		28H   ;2041,2040
   331 00:FCB6: 43            	DB		43H   ;2043,2042
   332 00:FCB7: 0D            	DB		0DH   ;2045,2044
   333 00:FCB8: 21            	DB		21H   ;2047,2046
   334 00:FCB9: 5B            	DB		5BH   ;2049,2048
   335 00:FCBA: 06            	DB		06H   ;2051,2050
   336 00:FCBB: 39            	DB		39H   ;2053,2052
   337 00:FCBC: 54            	DB		54H   ;2055,2054
   338 00:FCBD: 1E            	DB		1EH   ;2057,2056
   339 00:FCBE: 32            	DB		32H   ;2059,2058
   340 00:FCBF: 6C            	DB		6CH   ;2061,2060
   341 00:FCC0: 10            	DB		10H   ;2063,2062
   342 00:FCC1: 4A            	DB		4AH   ;2065,2064
   343 00:FCC2: 65            	DB		65H   ;2067,2066
   344 00:FCC3: 28            	DB		28H   ;2069,2068
   345 00:FCC4: 43            	DB		43H   ;2071,2070
   346 00:FCC5: 0D            	DB		0DH   ;2073,2072
   347 00:FCC6: 21            	DB		21H   ;2075,2074
   348 00:FCC7: 5B            	DB		5BH   ;2077,2076
   349 00:FCC8: 06            	DB		06H   ;2079,2078
   350 00:FCC9: 39            	DB		39H   ;2081,2080
   351 00:FCCA: 54            	DB		54H   ;2083,2082
   352 00:FCCB: 1E            	DB		1EH   ;2085,2084
   353 00:FCCC: 32            	DB		32H   ;2087,2086
   354 00:FCCD: 6C            	DB		6CH   ;2089,2088
   355 00:FCCE: 10            	DB		10H   ;2091,2090
   356 00:FCCF: 4A            	DB		4AH   ;2093,2092
   357 00:FCD0: 65            	DB		65H   ;2095,2094
   358 00:FCD1: 28            	DB		28H   ;2097,2096
   359 00:FCD2: 43            	DB		43H   ;2099,2098
   360                        ;--------------------------------
   361                        T_Month_Week:
   362 00:FCD3: 00            	DB		00H
   363 00:FCD4: 00            	DB		00H   ;JANUARY		从1月1日开始，所以1月为0
   364 00:FCD5: 33            	DB		33H   ;FABRUARY 	低4Bit为非闰年，高4Bit为闰年,
   365 00:FCD6: 43            	DB		43H   ;MARCH		每4bit数字是前几个月全部的天数减去7的倍数的剩余天数
   366 00:FCD7: 76            	DB		76H   ;APRIL
   367 00:FCD8: 21            	DB		21H   ;MAY
   368 00:FCD9: 54            	DB		54H   ;JUNE
   369 00:FCDA: 76            	DB		76H   ;JULY
   370 00:FCDB: 32            	DB		32H   ;AUGUST
   371 00:FCDC: 65            	DB		65H   ;SEPTEMBER
   372 00:FCDD: 10            	DB		10H   ;OCTOBER
   373 00:FCDE: 43            	DB		43H   ;NOVEMBER
   374 00:FCDF: 65            	DB		65H   ;DECEMBER
   374                        
   181                        .INCLUDE	Half_s\Alarm_Clock.asm
     1                        L_Alarm_Prog:;闹钟判断的时间是贪睡闹钟时间，而正常闹钟时间作为显示闹钟时间
     2 00:FCE0: 73 CA         	LDA		R_Alarm_Mode
     3 00:FCE2: 13 56         	BEQ		L_Alarm_Prog_OUT
     4                        
     5 00:FCE4: 73 B3         	LDA		R_Time_Sec
     6 00:FCE6: 12 52         	BNE		L_Alarm_Prog_OUT
     7 00:FCE8: 73 B4         	LDA		R_Time_Min
     8 00:FCEA: 76 C7         	CMP		R_Alarm_Clock_Hr
     9 00:FCEC: 12 4C         	BNE		L_Alarm_Prog_OUT
    10 00:FCEE: 73 B4         	LDA		R_Time_Min
    11 00:FCF0: 76 C6         	CMP		R_Alarm_Clock_Min
    12 00:FCF2: 12 46         	BNE		L_Alarm_Prog_OUT
    13                        
    14 00:FCF4: 06            	CLD
    15 00:FCF5: 73 CB         	LDA		R_Alarm_Clock_Mode
    16 00:FCF7: 04            	CLC
    17 00:FCF8: 18            	ROL
    18 00:FCF9: 1B            	TAX
    19 00:FCFA: 63 3C FD      	LDA		Table_2+1,X
    20 00:FCFD: 0A            	PHA
    21 00:FCFE: 63 3B FD      	LDA		Table_2,X
    22 00:FD01: 0A            	PHA
    23 00:FD02: 09            	RTS
    24                        
    25                        
    26                        
    27                        
    28                        
    29                        L_Alarm_Once_Month_Prog:;一个月的闹钟	,定月闹钟
    30 00:FD03: 73 B7         	LDA		R_Time_Month
    31 00:FD05: 76 C9         	CMP		R_Alarm_Clock_Month
    32 00:FD07: 12 31         	BNE		L_Alarm_Prog_OUT
    33 00:FD09: 17 16         	BRA		L_Alarm_Control_Prog
    34                        L_Alarm_Every_Month_Prog;月次闹钟
    35 00:FD0B: 73 B6         	LDA		R_Time_Day
    36 00:FD0D: 76 C8         	CMP		R_Alarm_Clock_Day
    37 00:FD0F: 12 29         	BNE		L_Alarm_Prog_OUT
    38 00:FD11: 17 0E         	BRA		L_Alarm_Control_Prog
    39                        
    40                        L_Alarm_Once_Month_Day_Prog:;定日闹钟
    41 00:FD13: 73 B7         	LDA		R_Time_Month
    42 00:FD15: 76 C9         	CMP		R_Alarm_Clock_Month
    43 00:FD17: 12 21         	BNE		L_Alarm_Prog_OUT
    44 00:FD19: 73 B6         	LDA		R_Time_Day
    45 00:FD1B: 76 C8         	CMP		R_Alarm_Clock_Day
    46 00:FD1D: 12 1B         	BNE		L_Alarm_Prog_OUT
    47 00:FD1F: 17 00         	BRA		L_Alarm_Control_Prog
    48                        
    49                        
    50                        
    51                        
    52                        
    53                        
    54                        L_Alarm_Control_Prog:
    55 00:FD21: 73 CA         	LDA		R_Alarm_Mode
    56 00:FD23: 56 02         	CMP		#2
    57 00:FD25: 12 0A         	BNE		L_Alarm_Control_Prog_2
    58 00:FD27: 2F A7         	SMB7	Sys_Flag_C
    59 00:FD29: 53 07         	LDA		#D_Snz_Frequency
    60 00:FD2B: 7F CD         	STA		R_Snz_Frequency
    61 00:FD2D: 53 05         	LDA		#D_Snz_Time
    62 00:FD2F: 7F CC         	STA		R_Snz_Time
    63                        L_Alarm_Control_Prog_2:
    64 00:FD31: 34 A8 00      	BBR4	Sys_Flag_D,L_Alarm_Prog_1
    65                        	; JSR		L_Scankey_Close_Timer_Beep
    66                        
    67                        
    68                        L_Alarm_Prog_1:
    69 00:FD34: 2C A7         	SMB4	Sys_Flag_C
    70 00:FD36: 53 0F         	LDA		#D_Beep_Open_Last_Time_Alarm
    71 00:FD38: 7F D6         	STA		R_Close_Beep_Time
    72                        
    73                        
    74                        L_Alarm_Prog_OUT:
    75 00:FD3A: 09            	RTS
    76                        
    77                        Table_2:
    78 00:FD3B: 20 FD         	DW		L_Alarm_Control_Prog-1
    79 00:FD3D: 12 FD         	DW		L_Alarm_Once_Month_Day_Prog-1
    80 00:FD3F: 02 FD         	DW		L_Alarm_Once_Month_Prog-1
    81 00:FD41: 0A FD         	DW		L_Alarm_Every_Month_Prog-1
    82                        ;=========================================================================================================
    83                        L_Update_Alarm_Clock_Min_Prog:;闹钟时间分钟更新加
    84 00:FD43: 5E 13         	LDX		#(R_Alarm_Clock_Min-Time_Str_Addr)
    85 00:FD45: 16 A4 FB      	JMP		L_Inc_To_60_Prog
    86                        ;---------------------------
    87                        L_Update_Alarm_Clock_Hr_Prog:;闹钟时间小时更新加
    88 00:FD48: 5E 14         	LDX		#(R_Alarm_Clock_Hr-Time_Str_Addr)
    89 00:FD4A: 53 17         	LDA		#23
    90 00:FD4C: 16 A6 FB      	JMP		L_Inc_To_Any_Count_Prog
    91                        ;----------------------------------
    92                        L_Update_Alarm_Clock_Day_Prog:;闹钟时间天数更新加
    93 00:FD4F: 53 1F         	LDA		#31
    94 00:FD51: 5E 15         	LDX		#(R_Alarm_Clock_Day-Time_Str_Addr)
    95 00:FD53: 16 C0 FB      	JMP		L_Inc_To_Any_Count_Prog_To_1
    96                        ;-------------------------------------
    97                        L_Update_Alarm_Clock_Month_Prog:;闹钟时间月更新加
    98 00:FD56: 5E 16         	LDX		#(R_Alarm_Clock_Month-Time_Str_Addr)
    99 00:FD58: 53 0C         	LDA		#12
   100 00:FD5A: 16 C0 FB      	JMP		L_Inc_To_Any_Count_Prog_To_1
   100                        
   182                        .INCLUDE	Half_s\Timer.asm
     1                        ; L_Timer_Prog:
     2                            ; BBS4    Sys_Flag_D,L_Timer_Prog_OUT
     3                            ; BBR2    Sys_Flag_D,L_Timer_Prog_OUT;是否开始计时,根据标志位判断定时器是否开启
     4                            ; BBR0	Sys_Flag_D,L_Positive_Timer		;判断正计时,根据标志位判断正计时还是倒计时
     5                        	; BRA     L_Desitive_Timer		;判断倒计时
     6                        L_Positive_Timer:
     7 00:FD5D: 30 A8 17          BBR0    Sys_Flag_D,L_Timer_Prog_OUT
     8 00:FD60: 15 78 FD          JSR     L_Update_Timer_Sec_Prog
     9 00:FD63: 10 12             BCC     L_Timer_Prog_OUT
    10 00:FD65: 15 7D FD          JSR     L_Update_Timer_Min_Prog
    11 00:FD68: 10 0D             BCC     L_Timer_Prog_OUT
    12 00:FD6A: 15 82 FD          JSR     L_Update_Timer_Hr_Prog
    13 00:FD6D: 10 08             BCC     L_Timer_Prog_OUT
    14 00:FD6F: 53 00             LDA     #0
    15 00:FD71: 7F BF             STA     R_Timer_Hr
    16 00:FD73: 7F BE             STA     R_Timer_Min
    17 00:FD75: 7F BD             STA     R_Timer_Sec;记满重启计时
    18                        L_Timer_Prog_OUT:
    19 00:FD77: 09                RTS
    20                        L_Update_Timer_Sec_Prog:
    21 00:FD78: 5E 0A             LDX     #(R_Timer_Sec-Time_Str_Addr)
    22 00:FD7A: 16 A4 FB          JMP     L_Inc_To_60_Prog
    23                        ;----------------------------------------------------
    24                        L_Update_Timer_Min_Prog:
    25 00:FD7D: 5E 0B             LDX     #(R_Timer_Min-Time_Str_Addr)
    26 00:FD7F: 16 A4 FB          JMP     L_Inc_To_60_Prog
    27                        ; ;----------------------------------------------------
    28                        L_Update_Timer_Hr_Prog:
    29 00:FD82: 5E 0C             LDX     #(R_Timer_Hr-Time_Str_Addr)
    30 00:FD84: 53 17             LDA     #23
    31 00:FD86: 16 A6 FB          JMP     L_Inc_To_Any_Count_Prog
    32                        ;----------------------------------------------------
    33                        ;============================================================
    34                        L_Desitive_Timer:;倒计时
    35 00:FD89: 3C A8 EB          BBS4    Sys_Flag_D,L_Timer_Prog_OUT
    36 00:FD8C: 31 A8 E8          BBR1    Sys_Flag_D,L_Timer_Prog_OUT
    37 00:FD8F: 15 C3 FD          JSR     L_Update_Timer_Sec_Prog_Desitive
    38 00:FD92: 11 E3             BCS     L_Timer_Prog_OUT
    39 00:FD94: 15 BE FD          JSR     L_Update_Timer_Min_Prog_Desitive
    40 00:FD97: 11 DE             BCS     L_Timer_Prog_OUT
    41 00:FD99: 15 B7 FD          JSR     L_Update_Timer_Hr_Prog_Desitive
    42 00:FD9C: 11 D9             BCS     L_Timer_Prog_OUT
    43 00:FD9E: 34 A7 00          BBR4    Sys_Flag_C,L_Desitive_Timer_1
    44                            ; JSR     L_Scankey_Close_Alarm_Beep;如果此时存在闹铃闹钟，则执行关闭闹铃程序
    45                        L_Desitive_Timer_1:
    46 00:FDA1: 53 00             LDA     #0
    47 00:FDA3: 5E 0D             LDX     #(R_Timer_Sec_Countdown-Time_Str_Addr)
    48 00:FDA5: 6F 33 18          STA     Time_Addr,X
    49 00:FDA8: 0B                INX
    50 00:FDA9: 6F 33 18          STA     Time_Addr,X
    51 00:FDAC: 0B                INX
    52 00:FDAD: 6F 33 18          STA     Time_Addr,X
    53 00:FDB0: 2C A8             SMB4    Sys_Flag_D
    54 00:FDB2: 53 0F             LDA     #D_Beep_Open_Last_Time_Timer
    55 00:FDB4: 7F D6             STA     R_Close_Beep_Time
    56 00:FDB6: 09                RTS
    57                        ;=======================================
    58                        L_Update_Timer_Hr_Prog_Desitive:
    59 00:FDB7: 5E 0F         	LDX		#(R_Timer_Hr_Countdown-Time_Str_Addr)
    60 00:FDB9: 53 18         	LDA		#24
    61 00:FDBB: 16 DA FB      	JMP		L_Dec_To_0_Prog
    62                        ;----------------------------------------------------
    63                        L_Update_Timer_Min_Prog_Desitive:
    64 00:FDBE: 5E 0E         	LDX		#(R_Timer_Min_Countdown-Time_Str_Addr)
    65 00:FDC0: 16 D8 FB      	JMP		L_Dec_To_60_Prog
    66                        ;----------------------------------------------------
    67                        L_Update_Timer_Sec_Prog_Desitive:
    68 00:FDC3: 5E 0D         	LDX		#(R_Timer_Sec_Countdown-Time_Str_Addr)
    69 00:FDC5: 16 D8 FB      	JMP     L_Dec_To_60_Prog
    70                        ;----------------------------------------------------
    71                        
    72                        L_Update_Timer_Hr_Prog_Desitive_INC:
    73 00:FDC8: 5E 0F         	LDX		#(R_Timer_Hr_Countdown-Time_Str_Addr)
    74 00:FDCA: 53 17         	LDA		#23
    75 00:FDCC: 16 A6 FB      	JMP		L_Inc_To_Any_Count_Prog
    76                        ;----------------------------------------------------
    77                        L_Update_Timer_Min_Prog_Desitive_INC:
    78 00:FDCF: 5E 0E         	LDX		#(R_Timer_Min_Countdown-Time_Str_Addr)
    79 00:FDD1: 16 A4 FB      	JMP		L_Inc_To_60_Prog
    79                        
   183                        .INCLUDE	Half_s\Common.asm
     1                        L_Set_Mode_Auto_Exit:
     2 00:FDD4: 33 A5 19      	BBR3	Sys_Flag_A,L_Set_Mode_Auto_Exit_OUT
     3 00:FDD7: 73 A5         	LDA		Sys_Flag_A
     4 00:FDD9: 51 14         	AND		#14H
     5 00:FDDB: 12 13         	BNE		L_Set_Mode_Auto_Exit_OUT;长按和快加时不进行设置
     6 00:FDDD: 78 D1         	INC		R_Set_Mode_Exit_Time
     7 00:FDDF: 73 D1         	LDA		R_Set_Mode_Exit_Time
     8 00:FDE1: 56 0F         	CMP		#D_Set_Mode_Exit_Time
     9 00:FDE3: 11 03         	BCS		L_Set_Mode_Auto_Exit_1
    10 00:FDE5: 13 01         	BEQ		L_Set_Mode_Auto_Exit_1
    11 00:FDE7: 09            	RTS
    12                        L_Set_Mode_Auto_Exit_1:
    13 00:FDE8: 23 A5         	RMB3	Sys_Flag_A
    14 00:FDEA: 53 00         	LDA		#0
    15 00:FDEC: 7F D1         	STA		R_Set_Mode_Exit_Time
    16 00:FDEE: 7F CF         	STA		R_Mode_Set
    17                        L_Set_Mode_Auto_Exit_OUT:
    18 00:FDF0: 09            	RTS
    19                        ;========================================
    20                        L_Control_Light_Prog:
    21 00:FDF1: 53 02         	LDA		#D_Close_Light_Time
    22 00:FDF3: 7F D4         	STA		R_Close_Light_Time
    23                        	PB2_PB2_COMS
+   23 00:FDF5: 20 0C          RMB0 PADF0
+   23 00:FDF7: 2A 06          SMB2 PBTYPE
    24 00:FDF9: 53 04         	LDA		#04H
    25 00:FDFB: 7F 05         	STA		P_PB
    26 00:FDFD: 2D A5         	SMB5	Sys_Flag_A
    27 00:FDFF: 15 42 FF      	JSR		L_Beep_1s
    28 00:FE02: 09            	RTS
    29                        L_Control_Light_Auto_Exit_Prog:
    30                        
    31 00:FE03: 73 D4         	LDA		R_Close_Light_Time
    32 00:FE05: 13 E9         	BEQ		L_Set_Mode_Auto_Exit_OUT
    33 00:FE07: 79 D4         	DEC		R_Close_Light_Time
    34                        	PB2_PB2_NOMS
+   34 00:FE09: 20 0C          RMB0 PADF0
+   34 00:FE0B: 22 06          RMB2 PBTYPE
    35 00:FE0D: 53 00         	LDA		#0
    36 00:FE0F: 7F 05         	STA		P_PB
    37 00:FE11: 09            	RTS
    38                        ;===============================================
    39                        L_Control_All_Dis_Prog:
    40 00:FE12: 53 02         	LDA		#D_Close_All_Dis
    41 00:FE14: 7F D3         	STA		R_Close_All_Dis
    42 00:FE16: 15 05 F1      	JSR		L_Dis_All_DisRam_Prog
    43 00:FE19: 53 00         	LDA		#0
    44 00:FE1B: 7F CE         	STA		R_Mode
    45 00:FE1D: 09            	RTS
    46                        
    47                        L_Control_All_Dis_Auto_Exit_Prog:
    48                        
    49 00:FE1E: 73 D3         	LDA		R_Close_All_Dis
    50 00:FE20: 13 CE         	BEQ		L_Set_Mode_Auto_Exit_OUT
    51 00:FE22: 79 D3         	DEC		R_Close_All_Dis
    52 00:FE24: 15 CC F6      	JSR		L_Display_Prog
    53                        	RTS
    53 00:FE27: 09            
   184                        .INCLUDE	Half_s\Flash.asm
     1                        L_SysFlash_Prog:
     2 00:FE28: 15 3A FE      	JSR		L_SysFlash_Prog_1
     3 00:FE2B: 73 CE         	LDA		R_Mode
     4 00:FE2D: 56 02         	CMP		#2
     5 00:FE2F: 12 08         	BNE		L_SysFlash_Prog_OUT
     6 00:FE31: 30 A8 05      	BBR0	Sys_Flag_D,L_SysFlash_Prog_OUT
     7 00:FE34: 5E 5B         	LDX		#lcd_col
     8 00:FE36: 15 C0 F4      	JSR		F_ClrpSymbol
     9                        L_SysFlash_Prog_OUT:
    10 00:FE39: 09            	RTS
    11                        ;===============================================
    12                        L_SysFlash_Prog_1:;设置模式时闪烁，快加不闪烁
    13 00:FE3A: 33 A5 FC      	BBR3	Sys_Flag_A,L_SysFlash_Prog_OUT
    14 00:FE3D: 3C A5 F9      	BBS4	Sys_Flag_A,L_SysFlash_Prog_OUT
    15 00:FE40: 06            	CLD
    16 00:FE41: 73 CE         	LDA		R_Mode
    17 00:FE43: 04            	CLC
    18 00:FE44: 18            	ROL
    19 00:FE45: 1B            	TAX
    20 00:FE46: 63 8D FE      	LDA		Table_Clr_1+1,X
    21 00:FE49: 0A            	PHA
    22 00:FE4A: 63 8C FE      	LDA		Table_Clr_1,X
    23 00:FE4D: 0A            	PHA
    24 00:FE4E: 09            	RTS
    25                        
    26                        
    27                        
    28                        
    29                        
    30                        
    31                        L_Clr_Time_Normal_Prog:
    32 00:FE4F: 73 CF         	LDA		R_Mode_Set
    33 00:FE51: 06            	CLD
    34 00:FE52: 04            	CLC
    35 00:FE53: 18            	ROL
    36 00:FE54: 1B            	TAX
    37 00:FE55: 63 97 FE      	LDA		Table_Clr_2+1,X
    38 00:FE58: 0A            	PHA
    39 00:FE59: 63 96 FE      	LDA		Table_Clr_2,X
    40 00:FE5C: 0A            	PHA
    41 00:FE5D: 09            	RTS
    42                        
    43                        L_Clr_Alarm_Normal_Prog:
    44 00:FE5E: 73 CF         	LDA		R_Mode_Set
    45 00:FE60: 06            	CLD
    46 00:FE61: 04            	CLC
    47 00:FE62: 18            	ROL
    48 00:FE63: 1B            	TAX
    49 00:FE64: 63 A3 FE      	LDA		Table_Clr_3+1,X
    50 00:FE67: 0A            	PHA
    51 00:FE68: 63 A2 FE      	LDA		Table_Clr_3,X
    52 00:FE6B: 0A            	PHA
    53 00:FE6C: 09            	RTS
    54                        
    55                        L_Clr_Positive_Timer_Normal_Prog:
    56 00:FE6D: 09            	RTS
    57                        
    58                        L_Clr_Another_Time_Normal_Prog:
    59 00:FE6E: 73 CF         	LDA		R_Mode_Set
    60 00:FE70: 06            	CLD
    61 00:FE71: 04            	CLC
    62 00:FE72: 18            	ROL
    63 00:FE73: 1B            	TAX
    64 00:FE74: 63 AB FE      	LDA		Table_Clr_4+1,X
    65 00:FE77: 0A            	PHA
    66 00:FE78: 63 AA FE      	LDA		Table_Clr_4,X
    67 00:FE7B: 0A            	PHA
    68 00:FE7C: 09            	RTS
    69                        
    70                        L_Clr_Destive_Timer_Normal_Prog:
    71 00:FE7D: 73 CF         	LDA		R_Mode_Set
    72 00:FE7F: 06            	CLD
    73 00:FE80: 04            	CLC
    74 00:FE81: 18            	ROL
    75 00:FE82: 1B            	TAX
    76 00:FE83: 63 AF FE      	LDA		Table_Clr_5+1,X
    77 00:FE86: 0A            	PHA
    78 00:FE87: 63 AE FE      	LDA		Table_Clr_5,X
    79 00:FE8A: 0A            	PHA
    80 00:FE8B: 09            	RTS
    81                        
    82                        Table_Clr_1:
    83 00:FE8C: 4E FE         	DW		L_Clr_Time_Normal_Prog-1
    84 00:FE8E: 5D FE         	DW		L_Clr_Alarm_Normal_Prog-1
    85 00:FE90: 6C FE         	DW		L_Clr_Positive_Timer_Normal_Prog-1
    86 00:FE92: 6D FE         	DW		L_Clr_Another_Time_Normal_Prog-1
    87 00:FE94: 7C FE         	DW		L_Clr_Destive_Timer_Normal_Prog-1
    88                        
    89                        Table_Clr_2:
    90 00:FE96: 04 FA         	DW		L_Clr_Sec_Prog-1
    91 00:FE98: 18 FA         	DW		L_Clr_Hr_Prog-1
    92 00:FE9A: 0E FA         	DW		L_Clr_Min_Prog-1
    93 00:FE9C: 44 FA         	DW		L_Clr_Year_Prog-1
    94 00:FE9E: 2C FA         	DW		L_Clr_Month_Prog-1
    95 00:FEA0: 22 FA         	DW		L_Clr_Day_Prog-1
    96                        
    97                        
    98                        Table_Clr_3:
    99 00:FEA2: 18 FA         	DW		L_Clr_Hr_Prog-1
   100 00:FEA4: 0E FA         	DW		L_Clr_Min_Prog-1
   101 00:FEA6: 2C FA         	DW		L_Clr_Month_Prog-1
   102 00:FEA8: 22 FA         	DW		L_Clr_Day_Prog-1
   103                        
   104                        Table_Clr_4:
   105 00:FEAA: 18 FA         	DW		L_Clr_Hr_Prog-1
   106 00:FEAC: 0E FA         	DW		L_Clr_Min_Prog-1
   107                        
   108                        
   109                        Table_Clr_5:
   110 00:FEAE: 18 FA         	DW		L_Clr_Hr_Prog-1
   111 00:FEB0: 0E FA         	DW		L_Clr_Min_Prog-1
   112                        
   112                        
   185                        
   186                        .INCLUDE	Sound\Beep.asm
     1                        ;============================================================
     2                        L_control_Beep_prog:
     3 00:FEB2: 73 D7         	LDA		R_Voice_Unit;闹铃持续的次数时间
     4 00:FEB4: 13 08         	BEQ		L_control_Beep_prog_out
     5 00:FEB6: 78 D5         	INC		R_Alarm_Clock_Open_Beep_Time
     6 00:FEB8: 73 D5         	LDA		R_Alarm_Clock_Open_Beep_Time
     7 00:FEBA: 56 02         	CMP		#2
     8 00:FEBC: 11 01         	BCS		L_Open_Beep_Prog
     9                        L_control_Beep_prog_out:
    10 00:FEBE: 09            	RTS
    11                        
    12                        
    13                        ; ;---------------------------------------------------------------------
    14                        L_Open_Beep_Prog:
    15 00:FEBF: 53 00         	LDA		#0
    16 00:FEC1: 7F D5         	STA		R_Alarm_Clock_Open_Beep_Time
    17                        
    18 00:FEC3: 37 16 13      	BBR7	P_TMRCTRL,L_Open_Beep_Prog_1
    19 00:FEC6: 79 D7         	DEC		R_Voice_Unit
    20                        L_Close_Beep_Prog:
    21 00:FEC8: 53 00         	LDA		#$00
    22 00:FECA: 7F 1F         	STA		P_AUD
    23 00:FECC: 27 16         	RMB7	P_TMRCTRL	;关闭声音输出
    24 00:FECE: 20 1D         	RMB0	P_SYSCLK ;Weak
    25                        	PB3_PB3_NOMS
+   25 00:FED0: 21 0C          RMB1 PADF0
+   25 00:FED2: 23 06          RMB3 PBTYPE
    26 00:FED4: 53 00         	LDA		#0
    27 00:FED6: 7F 05         	STA		P_PB
    28 00:FED8: 09            	RTS
    29                        ;--------------------------------------
    30                        L_Open_Beep_Prog_1:
    31                        	PB3_PWM
+   31 00:FED9: 29 0C          SMB1 PADF0
+   31 00:FEDB: 2B 06          SMB3 PBTYPE
    32 00:FEDD: 53 00         	LDA		#$00
    33 00:FEDF: 7F 18         	STA		P_DIVC
    34 00:FEE1: 28 1D         	SMB0	P_SYSCLK ;STRONG
    35 00:FEE3: 53 FF         	LDA		#$FF
    36 00:FEE5: 7F 1F         	STA		P_AUD
    37 00:FEE7: 2F 16         	SMB7	P_TMRCTRL	;打开声音输
    38 00:FEE9: 09            	RTS
    39                        ;==========================================
    40                        L_Scankey_Short_ST_SP_Press_Prog_Alarm:
    41 00:FEEA: 3C A8 12      	BBS4	Sys_Flag_D,L_Scankey_Close_Timer_Beep
    42                        ;====================================================
    43                        L_Scankey_Close_Alarm_Beep:
    44 00:FEED: 73 A7         	LDA		Sys_Flag_C
    45 00:FEEF: 51 10         	AND		#10h
    46 00:FEF1: 13 0B         	BEQ		L_Scankey_Close_Alarm_Beep_OUT
    47 00:FEF3: 15 C8 FE      	JSR		L_Close_Beep_Prog
    48 00:FEF6: 53 00         	LDA		#0
    49 00:FEF8: 7F D7         	STA		R_Voice_Unit
    50 00:FEFA: 7F D6         	STA		R_Close_Beep_Time
    51 00:FEFC: 24 A7         	RMB4	Sys_Flag_C
    52                        L_Scankey_Close_Alarm_Beep_OUT:
    53 00:FEFE: 09            	RTS
    54                        ;==========================================
    55                        L_Scankey_Close_Timer_Beep:
    56 00:FEFF: 73 A8         	LDA		Sys_Flag_D
    57 00:FF01: 51 10         	AND		#10h
    58 00:FF03: 13 F9         	BEQ		L_Scankey_Close_Alarm_Beep_OUT
    59 00:FF05: 15 C8 FE      	JSR		L_Close_Beep_Prog
    60 00:FF08: 53 00         	LDA		#0
    61 00:FF0A: 7F D7         	STA		R_Voice_Unit
    62 00:FF0C: 7F D6         	STA		R_Close_Beep_Time
    63                        
    64 00:FF0E: 7F A8         	STA		Sys_Flag_D
    65 00:FF10: 73 C5         	LDA		R_Timer_Hr_Backup
    66 00:FF12: 7F C2         	STA		R_Timer_Hr_Countdown
    67 00:FF14: 73 C4         	LDA		R_Timer_Min_Backup
    68 00:FF16: 7F C1         	STA		R_Timer_Min_Countdown
    69 00:FF18: 53 00         	LDA		#0
    70 00:FF1A: 7F C3         	STA		R_Timer_Sec_Backup
    71 00:FF1C: 7F C0         	STA		R_Timer_Sec_Countdown
    72 00:FF1E: 15 0F F7      	JSR		L_Display_Postive_Timer_Prog
    73 00:FF21: 09            	RTS
    74                        
    75                        
    76                        
    77                        
    78                        
    79                        
    80                        
    81                        L_Control_Beep_prog_Auto_Exit:;多久自动退出响闹,如果没有则按每秒给值
    82 00:FF22: 73 A8         	LDA		Sys_Flag_D
    83 00:FF24: 70 A7         	ORA		Sys_Flag_C
    84 00:FF26: 51 10         	AND		#10H
    85 00:FF28: 13 D4         	BEQ		L_Scankey_Close_Alarm_Beep_OUT
    86 00:FF2A: 53 04         	LDA		#4
    87 00:FF2C: 7F D7         	STA		R_Voice_Unit
    88                        	EN_LCD_IRQ
+   88 00:FF2E: 2E 0E          SMB6 IER
    89 00:FF30: 79 D6         	DEC		R_Close_Beep_Time
    90 00:FF32: 73 D6         	LDA		R_Close_Beep_Time;定时器
    91 00:FF34: 13 B4         	BEQ		L_Scankey_Short_ST_SP_Press_Prog_Alarm
    92 00:FF36: 09                RTS
    92                        
   187                        
   188                        .INCLUDE	Delay.asm
     1                        ;============================================================
     2                        L_ScanKey_Delay_Prog:    ;延时功能
     3 00:FF37: 53 E0         	LDA		#$E0
     4 00:FF39: 7F D8         	STA		P_Temp
     5                        L_Loop_ScanKey_Delay:
     6 00:FF3B: 78 D8         	INC		P_Temp
     7 00:FF3D: 73 D8         	LDA		P_Temp
     8 00:FF3F: 12 FA         	BNE		L_Loop_ScanKey_Delay
     9 00:FF41: 09            	RTS
    10                        L_Beep_1s:    ;响一声
    11 00:FF42: 53 01         	LDA		#1
    12 00:FF44: 7F D7         	STA		R_Voice_Unit
    13                        	EN_LCD_IRQ
+   13 00:FF46: 2E 0E          SMB6 IER
    14 00:FF48: 09            	RTS
    15                        
    16                        
    17                        ; L_Beep_2s:    ;响一声
    18                        ; 	LDA		#2
    19                        ; 	STA		R_Voice_Unit
    20                        ; 	EN_LCD_IRQ
    21                        ; 	RTS
    21                        
   189                        
   190                        ;--------------------------------------------------------
   191                        ;***********************************************************************
   192 00:FF49: FF FF FF FF   	.BLKB	$FFFF-$,$FF
   192 00:FF49: FF FF FF FF   
   192 00:FF49: FF FF FF FF   
   193                        
   194                        	.ORG	0FFF8H
   195                        
   196 00:FFF8: 95            	DB		10010101B	;
   197                        ; bit0 	=0
   198                        ; bit1	=0
   199                        ; bit2 	=0当PA7做复位时，只能写1低电平有效，高电平有效烧录会报错
   200                        ; bit3	=0PA口做输入下拉和输入上拉，1PA口做输入下拉和三态
   201                        ; bit4 	=0
   202                        ; bit5 	=0
   203                        ; bit6	=0VDD=1.5V,1 VDD=3V
   204                        ; bit7	=0做复位，1做PA7口
   205 00:FFF9: FF            	DB		11111111B	;
   206                        
   207                        ;***********************************************************************
   208                        	.ORG	0FFFCH
   209 00:FFFC: 00 F0         	DW		V_RESET
   210 00:FFFE: AA F0         	DW		V_IRQ
   211                        
   212                        	.ENDS
   213                        	.END

 --------------------
      Warnings:0
      Errors  :0
